TN:
SF:/home/intel/ros2_overlay_ws/src/ros2_openvino_toolkit/dynamic_vino_lib/include/dynamic_vino_lib/common.hpp
FN:142,_ZlsRSoPKN15InferenceEngine7VersionE
FN:210,_Z18printPluginVersionN15InferenceEngine7details9SOPointerINS_16IInferencePluginENS0_18SharedObjectLoaderEEERSo
FNDA:10,_Z18printPluginVersionN15InferenceEngine7details9SOPointerINS_16IInferencePluginENS0_18SharedObjectLoaderEEERSo
FNDA:10,_ZlsRSoPKN15InferenceEngine7VersionE
FNF:2
FNH:2
BRDA:145,4294967295,0,0
BRDA:145,4294967295,1,10
BRDA:149,4294967295,0,10
BRDA:149,4294967295,1,0
BRDA:153,0,0,10
BRDA:153,0,1,0
BRF:6
BRH:3
DA:142,10
DA:144,10
DA:145,10
DA:146,0
DA:148,20
DA:149,10
DA:151,10
DA:153,10
DA:155,10
DA:158,10
DA:210,10
DA:212,10
DA:213,10
DA:214,10
DA:215,10
LF:15
LH:14
end_of_record
TN:
SF:/home/intel/ros2_overlay_ws/src/ros2_openvino_toolkit/dynamic_vino_lib/include/dynamic_vino_lib/engines/engine.hpp
FNF:0
FNH:0
DA:34,14
LF:1
LH:1
end_of_record
TN:
SF:/home/intel/ros2_overlay_ws/src/ros2_openvino_toolkit/dynamic_vino_lib/include/dynamic_vino_lib/inferences/age_gender_detection.hpp
FN:75,_ZN16dynamic_vino_lib18AgeGenderDetectionD0Ev
FNDA:0,_ZN16dynamic_vino_lib18AgeGenderDetectionD0Ev
FNDA:3,_ZN16dynamic_vino_lib18AgeGenderDetectionD2Ev
FNF:2
FNH:1
DA:44,46
DA:75,6
LF:2
LH:2
end_of_record
TN:
SF:/home/intel/ros2_overlay_ws/src/ros2_openvino_toolkit/dynamic_vino_lib/include/dynamic_vino_lib/inferences/base_filter.hpp
FN:35,_ZN16dynamic_vino_lib10BaseFilterD2Ev
FNDA:8,_ZN16dynamic_vino_lib10BaseFilterD2Ev
FNF:1
FNH:1
DA:35,16
LF:1
LH:1
end_of_record
TN:
SF:/home/intel/ros2_overlay_ws/src/ros2_openvino_toolkit/dynamic_vino_lib/include/dynamic_vino_lib/inferences/base_inference.hpp
FN:93,_ZN16dynamic_vino_lib13BaseInferenceD0Ev
FNDA:16,_ZN16dynamic_vino_lib13BaseInference7enqueueIhEEbRKN2cv3MatERKNS2_5Rect_IiEEfiRKNSt7__cxx1112basic_stringIcSt11char_traitsIcESaIcEEE
FNDA:0,_ZN16dynamic_vino_lib13BaseInferenceD0Ev
FNDA:16,_Z11matU8ToBlobIhEvRKN2cv3MatERSt10shared_ptrIN15InferenceEngine4BlobEEfi
FNDA:17,_ZN16dynamic_vino_lib13BaseInferenceC2Ev
FNDA:32,_ZN16dynamic_vino_lib13BaseInference7enqueueIfEEbRKN2cv3MatERKNS2_5Rect_IiEEfiRKNSt7__cxx1112basic_stringIcSt11char_traitsIcESaIcEEE
FNDA:32,_Z11matU8ToBlobIfEvRKN2cv3MatERSt10shared_ptrIN15InferenceEngine4BlobEEfi
FNDA:17,_ZN16dynamic_vino_lib13BaseInferenceD2Ev
FNF:7
FNH:6
BRDA:53,0,1,48
BRDA:53,0,2,0
BRDA:54,0,0,0
BRDA:54,0,1,48
BRDA:54,1,2,-
BRDA:54,1,3,-
BRDA:55,0,1,48
BRDA:55,0,2,0
BRDA:59,0,0,144
BRDA:59,0,1,48
BRDA:60,0,0,8928
BRDA:60,0,1,144
BRDA:61,0,0,553920
BRDA:61,0,1,8928
BRDA:189,0,0,0
BRDA:189,0,1,48
BRDA:190,0,3,-
BRDA:190,0,4,-
BRDA:190,1,6,-
BRDA:190,1,7,-
BRDA:190,2,9,-
BRDA:190,2,10,-
BRDA:190,3,12,-
BRDA:190,3,13,-
BRDA:195,4294967295,1,48
BRDA:195,4294967295,2,0
BRF:26
BRH:11
DA:43,48
DA:47,48
DA:48,48
DA:49,48
DA:50,48
DA:51,48
DA:53,96
DA:54,48
DA:55,48
DA:57,48
DA:59,192
DA:60,9072
DA:61,562848
DA:62,935040
DA:63,1488960
DA:67,48
DA:93,34
DA:131,14
DA:185,48
DA:189,48
DA:190,0
DA:192,0
DA:194,48
DA:195,48
DA:196,48
LF:25
LH:23
end_of_record
TN:
SF:/home/intel/ros2_overlay_ws/src/ros2_openvino_toolkit/dynamic_vino_lib/include/dynamic_vino_lib/inferences/base_reidentification.hpp
FNF:0
FNH:0
BRDA:85,0,1,-
BRDA:85,0,2,-
BRDA:85,2,4,-
BRDA:85,2,5,-
BRDA:85,3,7,-
BRDA:85,3,8,-
BRF:6
BRH:0
DA:35,0
DA:85,0
LF:2
LH:0
end_of_record
TN:
SF:/home/intel/ros2_overlay_ws/src/ros2_openvino_toolkit/dynamic_vino_lib/include/dynamic_vino_lib/inferences/emotions_detection.hpp
FN:41,_ZN16dynamic_vino_lib14EmotionsResultC2ERKS0_
FN:64,_ZN16dynamic_vino_lib17EmotionsDetectionD0Ev
FNDA:3,_ZN16dynamic_vino_lib17EmotionsDetectionD2Ev
FNDA:0,_ZN16dynamic_vino_lib17EmotionsDetectionD0Ev
FNDA:32,_ZN16dynamic_vino_lib14EmotionsResultC2ERKS0_
FNF:3
FNH:2
DA:41,46
DA:64,9
LF:2
LH:2
end_of_record
TN:
SF:/home/intel/ros2_overlay_ws/src/ros2_openvino_toolkit/dynamic_vino_lib/include/dynamic_vino_lib/inferences/face_detection.hpp
FN:54,_ZN16dynamic_vino_lib13FaceDetectionD0Ev
FN:54,_ZN16dynamic_vino_lib13FaceDetectionD2Ev
FNDA:0,_ZN16dynamic_vino_lib13FaceDetectionD2Ev
FNDA:0,_ZN16dynamic_vino_lib13FaceDetectionD0Ev
FNF:2
FNH:0
BRDA:44,0,1,-
BRDA:44,0,2,-
BRF:2
BRH:0
DA:44,0
DA:54,0
LF:2
LH:0
end_of_record
TN:
SF:/home/intel/ros2_overlay_ws/src/ros2_openvino_toolkit/dynamic_vino_lib/include/dynamic_vino_lib/inferences/face_reidentification.hpp
FN:38,_ZN16dynamic_vino_lib26FaceReidentificationResultC2ERKS0_
FN:53,_ZN16dynamic_vino_lib20FaceReidentificationD0Ev
FNDA:0,_ZN16dynamic_vino_lib20FaceReidentificationD2Ev
FNDA:0,_ZN16dynamic_vino_lib20FaceReidentificationD0Ev
FNDA:0,_ZN16dynamic_vino_lib26FaceReidentificationResultC2ERKS0_
FNF:3
FNH:0
DA:38,0
DA:53,0
LF:2
LH:0
end_of_record
TN:
SF:/home/intel/ros2_overlay_ws/src/ros2_openvino_toolkit/dynamic_vino_lib/include/dynamic_vino_lib/inferences/head_pose_detection.hpp
FN:78,_ZN16dynamic_vino_lib17HeadPoseDetectionD0Ev
FNDA:0,_ZN16dynamic_vino_lib17HeadPoseDetectionD0Ev
FNDA:3,_ZN16dynamic_vino_lib17HeadPoseDetectionD2Ev
FNF:2
FNH:1
DA:38,46
DA:78,6
LF:2
LH:2
end_of_record
TN:
SF:/home/intel/ros2_overlay_ws/src/ros2_openvino_toolkit/dynamic_vino_lib/include/dynamic_vino_lib/inferences/landmarks_detection.hpp
FN:54,_ZN16dynamic_vino_lib18LandmarksDetectionD0Ev
FNDA:0,_ZN16dynamic_vino_lib18LandmarksDetectionD0Ev
FNDA:0,_ZN16dynamic_vino_lib18LandmarksDetectionD2Ev
FNF:2
FNH:0
BRDA:37,0,1,-
BRDA:37,0,2,-
BRDA:37,3,5,-
BRDA:37,3,6,-
BRDA:44,0,1,-
BRDA:44,0,2,-
BRF:6
BRH:0
DA:37,0
DA:44,0
DA:54,0
LF:3
LH:0
end_of_record
TN:
SF:/home/intel/ros2_overlay_ws/src/ros2_openvino_toolkit/dynamic_vino_lib/include/dynamic_vino_lib/inferences/license_plate_detection.hpp
FN:37,_ZN16dynamic_vino_lib27LicensePlateDetectionResultC2ERKS0_
FN:54,_ZN16dynamic_vino_lib21LicensePlateDetectionD0Ev
FNDA:0,_ZN16dynamic_vino_lib21LicensePlateDetectionD0Ev
FNDA:0,_ZN16dynamic_vino_lib21LicensePlateDetectionD2Ev
FNDA:0,_ZN16dynamic_vino_lib27LicensePlateDetectionResultC2ERKS0_
FNF:3
FNH:0
DA:37,0
DA:54,0
LF:2
LH:0
end_of_record
TN:
SF:/home/intel/ros2_overlay_ws/src/ros2_openvino_toolkit/dynamic_vino_lib/include/dynamic_vino_lib/inferences/object_detection.hpp
FN:43,_ZN16dynamic_vino_lib21ObjectDetectionResultC2ERKS0_
FN:85,_ZN16dynamic_vino_lib27ObjectDetectionResultFilterD2Ev
FN:141,_ZN16dynamic_vino_lib15ObjectDetectionD0Ev
FNDA:0,_ZN16dynamic_vino_lib15ObjectDetectionD0Ev
FNDA:8,_ZN16dynamic_vino_lib27ObjectDetectionResultFilterD2Ev
FNDA:70,_ZN16dynamic_vino_lib21ObjectDetectionResultC2ERKS0_
FNDA:8,_ZN16dynamic_vino_lib15ObjectDetectionD2Ev
FNF:4
FNH:3
DA:43,90
DA:68,22
DA:85,24
DA:141,24
LF:4
LH:4
end_of_record
TN:
SF:/home/intel/ros2_overlay_ws/src/ros2_openvino_toolkit/dynamic_vino_lib/include/dynamic_vino_lib/inferences/object_segmentation.hpp
FN:40,_ZN16dynamic_vino_lib24ObjectSegmentationResultD2Ev
FN:40,_ZN16dynamic_vino_lib24ObjectSegmentationResultC2ERKS0_
FN:71,_ZN16dynamic_vino_lib18ObjectSegmentationD0Ev
FNDA:0,_ZN16dynamic_vino_lib18ObjectSegmentationD0Ev
FNDA:0,_ZN16dynamic_vino_lib24ObjectSegmentationResultC2ERKS0_
FNDA:0,_ZN16dynamic_vino_lib24ObjectSegmentationResultD2Ev
FNDA:0,_ZN16dynamic_vino_lib18ObjectSegmentationD2Ev
FNF:4
FNH:0
BRDA:40,0,1,-
BRDA:40,0,2,-
BRDA:59,0,1,-
BRDA:59,0,2,-
BRF:4
BRH:0
DA:40,0
DA:59,0
DA:71,0
LF:3
LH:0
end_of_record
TN:
SF:/home/intel/ros2_overlay_ws/src/ros2_openvino_toolkit/dynamic_vino_lib/include/dynamic_vino_lib/inferences/person_attribs_detection.hpp
FN:37,_ZN16dynamic_vino_lib28PersonAttribsDetectionResultC2ERKS0_
FN:59,_ZN16dynamic_vino_lib22PersonAttribsDetectionD0Ev
FNDA:0,_ZN16dynamic_vino_lib22PersonAttribsDetectionD0Ev
FNDA:0,_ZN16dynamic_vino_lib22PersonAttribsDetectionD2Ev
FNDA:0,_ZN16dynamic_vino_lib28PersonAttribsDetectionResultC2ERKS0_
FNF:3
FNH:0
DA:37,0
DA:48,0
DA:59,0
LF:3
LH:0
end_of_record
TN:
SF:/home/intel/ros2_overlay_ws/src/ros2_openvino_toolkit/dynamic_vino_lib/include/dynamic_vino_lib/inferences/person_reidentification.hpp
FN:38,_ZN16dynamic_vino_lib28PersonReidentificationResultC2ERKS0_
FN:52,_ZN16dynamic_vino_lib22PersonReidentificationD0Ev
FNDA:0,_ZN16dynamic_vino_lib22PersonReidentificationD0Ev
FNDA:0,_ZN16dynamic_vino_lib28PersonReidentificationResultC2ERKS0_
FNDA:0,_ZN16dynamic_vino_lib22PersonReidentificationD2Ev
FNF:3
FNH:0
DA:38,0
DA:52,0
LF:2
LH:0
end_of_record
TN:
SF:/home/intel/ros2_overlay_ws/src/ros2_openvino_toolkit/dynamic_vino_lib/include/dynamic_vino_lib/inferences/vehicle_attribs_detection.hpp
FN:37,_ZN16dynamic_vino_lib29VehicleAttribsDetectionResultD2Ev
FN:37,_ZN16dynamic_vino_lib29VehicleAttribsDetectionResultC2ERKS0_
FN:37,_ZN16dynamic_vino_lib29VehicleAttribsDetectionResultC2EOS0_
FN:59,_ZN16dynamic_vino_lib23VehicleAttribsDetectionD0Ev
FNDA:0,_ZN16dynamic_vino_lib29VehicleAttribsDetectionResultC2EOS0_
FNDA:0,_ZN16dynamic_vino_lib29VehicleAttribsDetectionResultD2Ev
FNDA:0,_ZN16dynamic_vino_lib23VehicleAttribsDetectionD2Ev
FNDA:0,_ZN16dynamic_vino_lib23VehicleAttribsDetectionD0Ev
FNDA:0,_ZN16dynamic_vino_lib29VehicleAttribsDetectionResultC2ERKS0_
FNF:5
FNH:0
DA:37,0
DA:59,0
LF:2
LH:0
end_of_record
TN:
SF:/home/intel/ros2_overlay_ws/src/ros2_openvino_toolkit/dynamic_vino_lib/include/dynamic_vino_lib/inputs/base_input.hpp
FN:46,_ZN5Input12MutexCounterC2Ei
FN:52,_ZN5Input12MutexCounter15increaseCounterEv
FN:58,_ZN5Input12MutexCounter15decreaseCounterEv
FN:75,_ZN5Input15BaseInputDeviceC2Ev
FN:101,_ZN5Input15BaseInputDevice11readServiceEPN2cv3MatENSt7__cxx1112basic_stringIcSt11char_traitsIcESaIcEEE
FN:105,_ZN5Input15BaseInputDevice6configERKNS_6ConfigE
FN:106,_ZN5Input15BaseInputDeviceD0Ev
FN:106,_ZN5Input15BaseInputDeviceD2Ev
FN:159,_ZN5Input15BaseInputDevice9setHeaderENSt7__cxx1112basic_stringIcSt11char_traitsIcESaIcEEE
FNDA:0,_ZN5Input15BaseInputDevice6configERKNS_6ConfigE
FNDA:0,_ZN5Input12MutexCounterC2Ei
FNDA:0,_ZN5Input15BaseInputDeviceD0Ev
FNDA:0,_ZN5Input12MutexCounter15increaseCounterEv
FNDA:4,_ZN5Input15BaseInputDevice9setHeaderENSt7__cxx1112basic_stringIcSt11char_traitsIcESaIcEEE
FNDA:0,_ZN5Input12MutexCounter15decreaseCounterEv
FNDA:0,_ZN5Input15BaseInputDevice11readServiceEPN2cv3MatENSt7__cxx1112basic_stringIcSt11char_traitsIcESaIcEEE
FNDA:10,_ZN5Input15BaseInputDeviceD2Ev
FNDA:10,_ZN5Input15BaseInputDeviceC2Ev
FNF:9
FNH:3
BRDA:75,1,1,10
BRDA:75,1,2,0
BRF:2
BRH:1
DA:38,0
DA:43,0
DA:46,0
DA:47,0
DA:48,0
DA:50,0
DA:52,0
DA:54,0
DA:56,0
DA:58,0
DA:60,0
DA:62,0
DA:75,10
DA:101,0
DA:103,0
DA:105,0
DA:106,10
DA:121,12
DA:137,12
DA:153,8
DA:159,4
DA:161,4
DA:162,4
DA:164,4
DA:165,4
DA:166,4
LF:26
LH:11
end_of_record
TN:
SF:/home/intel/ros2_overlay_ws/src/ros2_openvino_toolkit/dynamic_vino_lib/include/dynamic_vino_lib/inputs/image_input.hpp
FN:32,_ZN5Input5ImageD2Ev
FN:32,_ZN5Input5ImageD0Ev
FN:47,_ZN5Input5Image10initializeEi
FN:56,_ZN5Input5Image10initializeEmm
FNDA:0,_ZN5Input5Image10initializeEi
FNDA:0,_ZN5Input5ImageD0Ev
FNDA:4,_ZN5Input5ImageD2Ev
FNDA:0,_ZN5Input5Image10initializeEmm
FNF:4
FNH:1
DA:32,8
DA:47,0
DA:49,0
DA:56,0
DA:58,0
LF:5
LH:1
end_of_record
TN:
SF:/home/intel/ros2_overlay_ws/src/ros2_openvino_toolkit/dynamic_vino_lib/include/dynamic_vino_lib/inputs/ip_camera.hpp
FN:33,_ZN5Input8IpCameraD0Ev
FN:33,_ZN5Input8IpCameraD2Ev
FN:36,_ZN5Input8IpCameraC2ERKNSt7__cxx1112basic_stringIcSt11char_traitsIcESaIcEEE
FN:49,_ZN5Input8IpCamera10initializeEi
FNDA:0,_ZN5Input8IpCamera10initializeEi
FNDA:0,_ZN5Input8IpCameraC2ERKNSt7__cxx1112basic_stringIcSt11char_traitsIcESaIcEEE
FNDA:0,_ZN5Input8IpCameraD0Ev
FNDA:0,_ZN5Input8IpCameraD2Ev
FNF:4
FNH:0
BRDA:36,1,2,-
BRDA:36,1,3,-
BRF:2
BRH:0
DA:33,0
DA:36,0
DA:49,0
DA:51,0
LF:4
LH:0
end_of_record
TN:
SF:/home/intel/ros2_overlay_ws/src/ros2_openvino_toolkit/dynamic_vino_lib/include/dynamic_vino_lib/inputs/realsense_camera.hpp
FN:33,_ZN5Input15RealSenseCameraD0Ev
FN:47,_ZN5Input15RealSenseCamera10initializeEi
FNDA:0,_ZN5Input15RealSenseCamera10initializeEi
FNDA:6,_ZN5Input15RealSenseCameraC2Ev
FNDA:6,_ZN5Input15RealSenseCameraD2Ev
FNDA:0,_ZN5Input15RealSenseCameraD0Ev
FNF:4
FNH:2
BRDA:33,5,5,6
BRDA:33,5,6,0
BRDA:33,6,8,6
BRDA:33,6,9,0
BRDA:33,7,11,6
BRDA:33,7,12,0
BRF:6
BRH:3
DA:33,24
DA:47,0
DA:49,0
LF:3
LH:1
end_of_record
TN:
SF:/home/intel/ros2_overlay_ws/src/ros2_openvino_toolkit/dynamic_vino_lib/include/dynamic_vino_lib/inputs/realsense_camera_topic.hpp
FN:37,_ZN5Input20RealSenseCameraTopicD0Ev
FN:42,_ZN5Input20RealSenseCameraTopic10initializeEi
FN:46,_ZN5Input20RealSenseCameraTopic10initializeEmm
FNDA:0,_ZN5Input20RealSenseCameraTopic10initializeEmm
FNDA:0,_ZN5Input20RealSenseCameraTopicD2Ev
FNDA:0,_ZN5Input20RealSenseCameraTopicD0Ev
FNDA:0,_ZN5Input20RealSenseCameraTopic10initializeEi
FNF:4
FNH:0
DA:37,0
DA:42,0
DA:44,0
DA:46,0
DA:48,0
LF:5
LH:0
end_of_record
TN:
SF:/home/intel/ros2_overlay_ws/src/ros2_openvino_toolkit/dynamic_vino_lib/include/dynamic_vino_lib/inputs/ros2_handler.hpp
FNF:0
FNH:0
DA:28,0
LF:1
LH:0
end_of_record
TN:
SF:/home/intel/ros2_overlay_ws/src/ros2_openvino_toolkit/dynamic_vino_lib/include/dynamic_vino_lib/inputs/standard_camera.hpp
FN:40,_ZN5Input14StandardCameraD2Ev
FN:40,_ZN5Input14StandardCameraC2Ev
FN:40,_ZN5Input14StandardCameraD0Ev
FNDA:0,_ZN5Input14StandardCameraD2Ev
FNDA:0,_ZN5Input14StandardCameraC2Ev
FNDA:0,_ZN5Input14StandardCameraD0Ev
FNF:3
FNH:0
BRDA:40,5,7,-
BRDA:40,5,8,-
BRF:2
BRH:0
DA:40,0
LF:1
LH:0
end_of_record
TN:
SF:/home/intel/ros2_overlay_ws/src/ros2_openvino_toolkit/dynamic_vino_lib/include/dynamic_vino_lib/inputs/video_input.hpp
FN:32,_ZN5Input5VideoD0Ev
FN:32,_ZN5Input5VideoD2Ev
FN:47,_ZN5Input5Video10initializeEi
FNDA:0,_ZN5Input5VideoD0Ev
FNDA:0,_ZN5Input5VideoD2Ev
FNDA:0,_ZN5Input5Video10initializeEi
FNF:3
FNH:0
DA:32,0
DA:47,0
DA:49,0
LF:3
LH:0
end_of_record
TN:
SF:/home/intel/ros2_overlay_ws/src/ros2_openvino_toolkit/dynamic_vino_lib/include/dynamic_vino_lib/models/age_gender_detection_model.hpp
FN:32,_ZN6Models23AgeGenderDetectionModelD2Ev
FNDA:3,_ZN6Models23AgeGenderDetectionModelD2Ev
FNF:1
FNH:1
DA:32,6
LF:1
LH:1
end_of_record
TN:
SF:/home/intel/ros2_overlay_ws/src/ros2_openvino_toolkit/dynamic_vino_lib/include/dynamic_vino_lib/models/base_model.hpp
FN:84,_ZN6Models9BaseModel7enqueueERKSt10shared_ptrIN7Engines6EngineEERKN2cv3MatERKNS7_5Rect_IiEE
FN:100,_ZNK6Models9BaseModel19getMaxProposalCountEv
FNDA:0,_ZN6Models9BaseModel7enqueueERKSt10shared_ptrIN7Engines6EngineEERKN2cv3MatERKNS7_5Rect_IiEE
FNDA:19,_ZN6Models9BaseModelD2Ev
FNDA:4,_ZNK6Models9BaseModel19getMaxProposalCountEv
FNF:3
FNH:2
DA:47,38
DA:69,3
DA:84,0
DA:87,0
DA:100,4
DA:102,5
DA:120,0
DA:121,4
DA:141,8
LF:9
LH:6
end_of_record
TN:
SF:/home/intel/ros2_overlay_ws/src/ros2_openvino_toolkit/dynamic_vino_lib/include/dynamic_vino_lib/models/emotion_detection_model.hpp
FN:32,_ZN6Models21EmotionDetectionModelD2Ev
FNDA:3,_ZN6Models21EmotionDetectionModelD2Ev
FNF:1
FNH:1
DA:32,6
LF:1
LH:1
end_of_record
TN:
SF:/home/intel/ros2_overlay_ws/src/ros2_openvino_toolkit/dynamic_vino_lib/include/dynamic_vino_lib/models/face_reidentification_model.hpp
FN:29,_ZN6Models25FaceReidentificationModelD2Ev
FNDA:0,_ZN6Models25FaceReidentificationModelD2Ev
FNF:1
FNH:0
DA:29,0
LF:1
LH:0
end_of_record
TN:
SF:/home/intel/ros2_overlay_ws/src/ros2_openvino_toolkit/dynamic_vino_lib/include/dynamic_vino_lib/models/head_pose_detection_model.hpp
FN:32,_ZN6Models22HeadPoseDetectionModelD2Ev
FNDA:3,_ZN6Models22HeadPoseDetectionModelD2Ev
FNF:1
FNH:1
DA:32,6
LF:1
LH:1
end_of_record
TN:
SF:/home/intel/ros2_overlay_ws/src/ros2_openvino_toolkit/dynamic_vino_lib/include/dynamic_vino_lib/models/landmarks_detection_model.hpp
FN:29,_ZN6Models23LandmarksDetectionModelD2Ev
FNDA:0,_ZN6Models23LandmarksDetectionModelD2Ev
FNF:1
FNH:0
DA:29,0
LF:1
LH:0
end_of_record
TN:
SF:/home/intel/ros2_overlay_ws/src/ros2_openvino_toolkit/dynamic_vino_lib/include/dynamic_vino_lib/models/license_plate_detection_model.hpp
FN:29,_ZN6Models26LicensePlateDetectionModelD2Ev
FNDA:0,_ZN6Models26LicensePlateDetectionModelD2Ev
FNF:1
FNH:0
DA:29,0
LF:1
LH:0
end_of_record
TN:
SF:/home/intel/ros2_overlay_ws/src/ros2_openvino_toolkit/dynamic_vino_lib/include/dynamic_vino_lib/models/object_detection_ssd_model.hpp
FN:30,_ZN6Models23ObjectDetectionSSDModelD2Ev
FNDA:8,_ZN6Models23ObjectDetectionSSDModelD2Ev
FNF:1
FNH:1
DA:30,8
LF:1
LH:1
end_of_record
TN:
SF:/home/intel/ros2_overlay_ws/src/ros2_openvino_toolkit/dynamic_vino_lib/include/dynamic_vino_lib/models/object_detection_yolov2_model.hpp
FNDA:0,_ZN6Models26ObjectDetectionYolov2ModelD2Ev
FNF:1
FNH:0
DA:30,0
LF:1
LH:0
end_of_record
TN:
SF:/home/intel/ros2_overlay_ws/src/ros2_openvino_toolkit/dynamic_vino_lib/include/dynamic_vino_lib/models/object_segmentation_model.hpp
FN:28,_ZN6Models23ObjectSegmentationModelD2Ev
FN:32,_ZNK6Models23ObjectSegmentationModel19getMaxProposalCountEv
FNDA:2,_ZN6Models23ObjectSegmentationModelD2Ev
FNDA:0,_ZNK6Models23ObjectSegmentationModel19getMaxProposalCountEv
FNF:2
FNH:1
DA:28,4
DA:32,0
DA:34,0
LF:3
LH:1
end_of_record
TN:
SF:/home/intel/ros2_overlay_ws/src/ros2_openvino_toolkit/dynamic_vino_lib/include/dynamic_vino_lib/models/person_attribs_detection_model.hpp
FN:29,_ZN6Models27PersonAttribsDetectionModelD2Ev
FNDA:0,_ZN6Models27PersonAttribsDetectionModelD2Ev
FNF:1
FNH:0
DA:29,0
LF:1
LH:0
end_of_record
TN:
SF:/home/intel/ros2_overlay_ws/src/ros2_openvino_toolkit/dynamic_vino_lib/include/dynamic_vino_lib/models/person_reidentification_model.hpp
FN:29,_ZN6Models27PersonReidentificationModelD2Ev
FNDA:0,_ZN6Models27PersonReidentificationModelD2Ev
FNF:1
FNH:0
DA:29,0
LF:1
LH:0
end_of_record
TN:
SF:/home/intel/ros2_overlay_ws/src/ros2_openvino_toolkit/dynamic_vino_lib/include/dynamic_vino_lib/models/vehicle_attribs_detection_model.hpp
FN:29,_ZN6Models28VehicleAttribsDetectionModelD2Ev
FNDA:0,_ZN6Models28VehicleAttribsDetectionModelD2Ev
FNF:1
FNH:0
DA:29,0
LF:1
LH:0
end_of_record
TN:
SF:/home/intel/ros2_overlay_ws/src/ros2_openvino_toolkit/dynamic_vino_lib/include/dynamic_vino_lib/outputs/base_output.hpp
FN:64,_ZN7Outputs10BaseOutputD2Ev
FN:67,_ZN7Outputs10BaseOutputC2ENSt7__cxx1112basic_stringIcSt11char_traitsIcESaIcEEE
FN:72,_ZN7Outputs10BaseOutput6acceptERKSt6vectorIN16dynamic_vino_lib27LicensePlateDetectionResultESaIS3_EE
FN:78,_ZN7Outputs10BaseOutput6acceptERKSt6vectorIN16dynamic_vino_lib29VehicleAttribsDetectionResultESaIS3_EE
FN:84,_ZN7Outputs10BaseOutput6acceptERKSt6vectorIN16dynamic_vino_lib26FaceReidentificationResultESaIS3_EE
FN:90,_ZN7Outputs10BaseOutput6acceptERKSt6vectorIN16dynamic_vino_lib24LandmarksDetectionResultESaIS3_EE
FN:96,_ZN7Outputs10BaseOutput6acceptERKSt6vectorIN16dynamic_vino_lib28PersonAttribsDetectionResultESaIS3_EE
FN:102,_ZN7Outputs10BaseOutput6acceptERKSt6vectorIN16dynamic_vino_lib28PersonReidentificationResultESaIS3_EE
FN:108,_ZN7Outputs10BaseOutput6acceptERKSt6vectorIN16dynamic_vino_lib24ObjectSegmentationResultESaIS3_EE
FN:114,_ZN7Outputs10BaseOutput6acceptERKSt6vectorIN16dynamic_vino_lib21ObjectDetectionResultESaIS3_EE
FN:120,_ZN7Outputs10BaseOutput6acceptERKSt6vectorIN16dynamic_vino_lib19FaceDetectionResultESaIS3_EE
FN:126,_ZN7Outputs10BaseOutput6acceptERKSt6vectorIN16dynamic_vino_lib14EmotionsResultESaIS3_EE
FN:133,_ZN7Outputs10BaseOutput6acceptERKSt6vectorIN16dynamic_vino_lib15AgeGenderResultESaIS3_EE
FN:139,_ZN7Outputs10BaseOutput6acceptERKSt6vectorIN16dynamic_vino_lib14HeadPoseResultESaIS3_EE
FN:146,_ZN7Outputs10BaseOutput9feedFrameERKN2cv3MatE
FN:155,_ZN7Outputs10BaseOutput18setServiceResponseESt10shared_ptrIN11object_msgs3srv22DetectObject_Response_ISaIvEEEE
FN:157,_ZN7Outputs10BaseOutput25setServiceResponseForFaceESt10shared_ptrIN11object_msgs3srv22DetectObject_Response_ISaIvEEEE
FN:159,_ZN7Outputs10BaseOutput18setServiceResponseESt10shared_ptrIN11people_msgs3srv22AgeGenderSrv_Response_ISaIvEEEE
FN:161,_ZN7Outputs10BaseOutput18setServiceResponseESt10shared_ptrIN11people_msgs3srv20EmotionSrv_Response_ISaIvEEEE
FN:163,_ZN7Outputs10BaseOutput18setServiceResponseESt10shared_ptrIN11people_msgs3srv21HeadPoseSrv_Response_ISaIvEEEE
FN:165,_ZN7Outputs10BaseOutput18setServiceResponseESt10shared_ptrIN11people_msgs3srv16People_Response_ISaIvEEEE
FN:169,_ZN7Outputs10BaseOutput9clearDataEv
FNDA:0,_ZN7Outputs10BaseOutput18setServiceResponseESt10shared_ptrIN11people_msgs3srv20EmotionSrv_Response_ISaIvEEEE
FNDA:0,_ZN7Outputs10BaseOutput25setServiceResponseForFaceESt10shared_ptrIN11object_msgs3srv22DetectObject_Response_ISaIvEEEE
FNDA:0,_ZN7Outputs10BaseOutput6acceptERKSt6vectorIN16dynamic_vino_lib14HeadPoseResultESaIS3_EE
FNDA:0,_ZN7Outputs10BaseOutput6acceptERKSt6vectorIN16dynamic_vino_lib21ObjectDetectionResultESaIS3_EE
FNDA:10,_ZN7Outputs10BaseOutputD2Ev
FNDA:0,_ZN7Outputs10BaseOutput6acceptERKSt6vectorIN16dynamic_vino_lib27LicensePlateDetectionResultESaIS3_EE
FNDA:0,_ZN7Outputs10BaseOutput6acceptERKSt6vectorIN16dynamic_vino_lib24LandmarksDetectionResultESaIS3_EE
FNDA:0,_ZN7Outputs10BaseOutput6acceptERKSt6vectorIN16dynamic_vino_lib28PersonReidentificationResultESaIS3_EE
FNDA:0,_ZN7Outputs10BaseOutput6acceptERKSt6vectorIN16dynamic_vino_lib28PersonAttribsDetectionResultESaIS3_EE
FNDA:0,_ZN7Outputs10BaseOutput9clearDataEv
FNDA:0,_ZN7Outputs10BaseOutput18setServiceResponseESt10shared_ptrIN11people_msgs3srv21HeadPoseSrv_Response_ISaIvEEEE
FNDA:0,_ZN7Outputs10BaseOutput6acceptERKSt6vectorIN16dynamic_vino_lib14EmotionsResultESaIS3_EE
FNDA:0,_ZN7Outputs10BaseOutput9feedFrameERKN2cv3MatE
FNDA:0,_ZN7Outputs10BaseOutput6acceptERKSt6vectorIN16dynamic_vino_lib24ObjectSegmentationResultESaIS3_EE
FNDA:0,_ZN7Outputs10BaseOutput18setServiceResponseESt10shared_ptrIN11people_msgs3srv16People_Response_ISaIvEEEE
FNDA:0,_ZN7Outputs10BaseOutput6acceptERKSt6vectorIN16dynamic_vino_lib15AgeGenderResultESaIS3_EE
FNDA:0,_ZN7Outputs10BaseOutput18setServiceResponseESt10shared_ptrIN11people_msgs3srv22AgeGenderSrv_Response_ISaIvEEEE
FNDA:0,_ZN7Outputs10BaseOutput6acceptERKSt6vectorIN16dynamic_vino_lib19FaceDetectionResultESaIS3_EE
FNDA:10,_ZN7Outputs10BaseOutputC2ENSt7__cxx1112basic_stringIcSt11char_traitsIcESaIcEEE
FNDA:0,_ZN7Outputs10BaseOutput6acceptERKSt6vectorIN16dynamic_vino_lib29VehicleAttribsDetectionResultESaIS3_EE
FNDA:0,_ZN7Outputs10BaseOutput18setServiceResponseESt10shared_ptrIN11object_msgs3srv22DetectObject_Response_ISaIvEEEE
FNDA:0,_ZN7Outputs10BaseOutput6acceptERKSt6vectorIN16dynamic_vino_lib26FaceReidentificationResultESaIS3_EE
FNF:22
FNH:2
DA:64,20
DA:67,10
DA:68,10
DA:72,0
DA:74,0
DA:78,0
DA:80,0
DA:84,0
DA:86,0
DA:90,0
DA:92,0
DA:96,0
DA:98,0
DA:102,0
DA:104,0
DA:108,0
DA:110,0
DA:114,0
DA:116,0
DA:120,0
DA:122,0
DA:126,0
DA:128,0
DA:133,0
DA:135,0
DA:139,0
DA:141,0
DA:146,0
DA:148,0
DA:155,0
DA:156,0
DA:157,0
DA:158,0
DA:159,0
DA:160,0
DA:161,0
DA:162,0
DA:163,0
DA:164,0
DA:165,0
DA:166,0
DA:169,0
LF:42
LH:3
end_of_record
TN:
SF:/home/intel/ros2_overlay_ws/src/ros2_openvino_toolkit/dynamic_vino_lib/include/dynamic_vino_lib/outputs/image_window_output.hpp
FN:33,_ZN7Outputs17ImageWindowOutputD2Ev
FN:152,_ZN7Outputs17ImageWindowOutput10OutputDataC2EOS1_
FN:152,_ZN7Outputs17ImageWindowOutput10OutputDataC2ERKS1_
FN:152,_ZN7Outputs17ImageWindowOutput10OutputDataD2Ev
FNDA:0,_ZN7Outputs17ImageWindowOutput10OutputDataC2ERKS1_
FNDA:0,_ZN7Outputs17ImageWindowOutputD2Ev
FNDA:0,_ZN7Outputs17ImageWindowOutput10OutputDataD2Ev
FNDA:0,_ZN7Outputs17ImageWindowOutput10OutputDataC2EOS1_
FNF:4
FNH:0
BRDA:152,2,1,-
BRDA:152,2,2,-
BRF:2
BRH:0
DA:33,0
DA:152,0
LF:2
LH:0
end_of_record
TN:
SF:/home/intel/ros2_overlay_ws/src/ros2_openvino_toolkit/dynamic_vino_lib/include/dynamic_vino_lib/outputs/ros_service_output.hpp
FN:48,_ZN7Outputs16RosServiceOutputD2Ev
FN:51,_ZN7Outputs16RosServiceOutputC2ENSt7__cxx1112basic_stringIcSt11char_traitsIcESaIcEEE
FN:58,_ZN7Outputs16RosServiceOutput12handleOutputEv
FNDA:4,_ZN7Outputs16RosServiceOutputC2ENSt7__cxx1112basic_stringIcSt11char_traitsIcESaIcEEE
FNDA:4,_ZN7Outputs16RosServiceOutput12handleOutputEv
FNDA:4,_ZN7Outputs16RosServiceOutputD2Ev
FNF:3
FNH:3
BRDA:52,4294967295,1,4
BRDA:52,4294967295,2,0
BRF:2
BRH:1
DA:48,8
DA:51,4
DA:52,8
DA:58,4
LF:4
LH:4
end_of_record
TN:
SF:/home/intel/ros2_overlay_ws/src/ros2_openvino_toolkit/dynamic_vino_lib/include/dynamic_vino_lib/outputs/ros_topic_output.hpp
FNDA:10,_ZN7Outputs14RosTopicOutputD2Ev
FNF:1
FNH:1
DA:60,20
LF:1
LH:1
end_of_record
TN:
SF:/home/intel/ros2_overlay_ws/src/ros2_openvino_toolkit/dynamic_vino_lib/include/dynamic_vino_lib/outputs/rviz_output.hpp
FNDA:0,_ZN7Outputs10RvizOutputD2Ev
FNF:1
FNH:0
DA:38,0
LF:1
LH:0
end_of_record
TN:
SF:/home/intel/ros2_overlay_ws/src/ros2_openvino_toolkit/dynamic_vino_lib/include/dynamic_vino_lib/pipeline.hpp
FNDA:10,_ZN8PipelineD2Ev
FNF:1
FNH:1
BRDA:133,0,1,16
BRDA:133,0,2,0
BRF:2
BRH:1
DA:43,20
DA:133,16
DA:145,4
LF:3
LH:3
end_of_record
TN:
SF:/home/intel/ros2_overlay_ws/src/ros2_openvino_toolkit/dynamic_vino_lib/include/dynamic_vino_lib/pipeline_manager.hpp
FNDA:5,_ZN15PipelineManagerD2Ev
FNDA:9,_ZN15PipelineManager12PipelineDataC2ERKS0_
FNDA:9,_ZN15PipelineManager11getInstanceEv
FNDA:19,_ZN15PipelineManager12PipelineDataD2Ev
FNDA:5,_ZN15PipelineManager12PipelineDataC2EOS0_
FNF:5
FNH:5
BRDA:47,0,0,5
BRDA:47,0,1,4
BRDA:47,1,3,5
BRDA:47,1,4,0
BRDA:71,1,2,4
BRDA:71,1,3,0
BRDA:71,3,3,5
BRDA:71,3,4,0
BRF:8
BRH:5
DA:37,5
DA:45,9
DA:47,9
DA:48,9
DA:71,94
DA:81,5
DA:95,0
DA:100,5
LF:8
LH:7
end_of_record
TN:
SF:/home/intel/ros2_overlay_ws/src/ros2_openvino_toolkit/dynamic_vino_lib/include/dynamic_vino_lib/pipeline_params.hpp
FNF:0
FNH:0
DA:69,10
LF:1
LH:1
end_of_record
TN:
SF:/home/intel/ros2_overlay_ws/src/ros2_openvino_toolkit/dynamic_vino_lib/include/dynamic_vino_lib/services/frame_processing_server.hpp
FN:40,_ZN12vino_service21FrameProcessingServerIN11people_msgs3srv6PeopleEED0Ev
FN:40,_ZN12vino_service21FrameProcessingServerIN11object_msgs3srv12DetectObjectEED0Ev
FNDA:2,_ZN12vino_service21FrameProcessingServerIN11object_msgs3srv12DetectObjectEED2Ev
FNDA:0,_ZN12vino_service21FrameProcessingServerIN11object_msgs3srv12DetectObjectEED0Ev
FNDA:0,_ZN12vino_service21FrameProcessingServerIN11people_msgs3srv6PeopleEED0Ev
FNDA:2,_ZN12vino_service21FrameProcessingServerIN11people_msgs3srv6PeopleEED2Ev
FNF:4
FNH:2
DA:40,8
LF:1
LH:1
end_of_record
TN:
SF:/home/intel/ros2_overlay_ws/src/ros2_openvino_toolkit/dynamic_vino_lib/include/dynamic_vino_lib/services/pipeline_processing_server.hpp
FN:31,_ZN12vino_service24PipelineProcessingServerIN17pipeline_srv_msgs3srv11PipelineSrvEED0Ev
FNDA:0,_ZN12vino_service24PipelineProcessingServerIN17pipeline_srv_msgs3srv11PipelineSrvEED2Ev
FNDA:0,_ZN12vino_service24PipelineProcessingServerIN17pipeline_srv_msgs3srv11PipelineSrvEED0Ev
FNF:2
FNH:0
DA:31,0
LF:1
LH:0
end_of_record
TN:
SF:/home/intel/ros2_overlay_ws/src/ros2_openvino_toolkit/dynamic_vino_lib/include/dynamic_vino_lib/slog.hpp
FN:44,_ZN4slog9LogStreamD2Ev
FN:66,_ZN4slog9LogStreamlsIA19_cEERS0_RKT_
FN:66,_ZN4slog9LogStreamlsIA23_cEERS0_RKT_
FN:66,_ZN4slog9LogStreamlsIA36_cEERS0_RKT_
FN:66,_ZN4slog9LogStreamlsIA52_cEERS0_RKT_
FN:66,_ZN4slog9LogStreamlsINSt7__cxx1112basic_stringIcSt11char_traitsIcESaIcEEEEERS0_RKT_
FN:66,_ZN4slog9LogStreamlsIA27_cEERS0_RKT_
FN:66,_ZN4slog9LogStreamlsIA34_cEERS0_RKT_
FN:66,_ZN4slog9LogStreamlsIA50_cEERS0_RKT_
FN:66,_ZN4slog9LogStreamlsIA48_cEERS0_RKT_
FN:66,_ZN4slog9LogStreamlsIA28_cEERS0_RKT_
FN:66,_ZN4slog9LogStreamlsIA35_cEERS0_RKT_
FN:66,_ZN4slog9LogStreamlsIA53_cEERS0_RKT_
FN:66,_ZN4slog9LogStreamlsIA25_cEERS0_RKT_
FN:66,_ZN4slog9LogStreamlsIlEERS0_RKT_
FN:66,_ZN4slog9LogStreamlsIA43_cEERS0_RKT_
FN:66,_ZN4slog9LogStreamlsIA10_cEERS0_RKT_
FN:66,_ZN4slog9LogStreamlsIA6_cEERS0_RKT_
FN:66,_ZN4slog9LogStreamlsIiEERS0_RKT_
FN:66,_ZN4slog9LogStreamlsIA51_cEERS0_RKT_
FN:66,_ZN4slog9LogStreamlsIA26_cEERS0_RKT_
FN:66,_ZN4slog9LogStreamlsIA18_cEERS0_RKT_
FN:66,_ZN4slog9LogStreamlsIA37_cEERS0_RKT_
FN:66,_ZN4slog9LogStreamlsIPKcEERS0_RKT_
FN:66,_ZN4slog9LogStreamlsIA47_cEERS0_RKT_
FN:66,_ZN4slog9LogStreamlsIA54_cEERS0_RKT_
FN:66,_ZN4slog9LogStreamlsIA86_cEERS0_RKT_
FN:66,_ZN4slog9LogStreamlsIA12_cEERS0_RKT_
FN:66,_ZN4slog9LogStreamlsIA30_cEERS0_RKT_
FN:66,_ZN4slog9LogStreamlsIA45_cEERS0_RKT_
FN:66,_ZN4slog9LogStreamlsIA2_cEERS0_RKT_
FN:66,_ZN4slog9LogStreamlsIA21_cEERS0_RKT_
FN:66,_ZN4slog9LogStreamlsIA38_cEERS0_RKT_
FN:66,_ZN4slog9LogStreamlsIA55_cEERS0_RKT_
FN:66,_ZN4slog9LogStreamlsIA17_cEERS0_RKT_
FN:66,_ZN4slog9LogStreamlsIA62_cEERS0_RKT_
FN:66,_ZN4slog9LogStreamlsIA57_cEERS0_RKT_
FN:66,_ZN4slog9LogStreamlsIA22_cEERS0_RKT_
FN:66,_ZN4slog9LogStreamlsIA9_cEERS0_RKT_
FN:66,_ZN4slog9LogStreamlsIA11_cEERS0_RKT_
FN:66,_ZN4slog9LogStreamlsIA5_cEERS0_RKT_
FN:66,_ZN4slog9LogStreamlsIA15_cEERS0_RKT_
FN:66,_ZN4slog9LogStreamlsIA61_cEERS0_RKT_
FN:66,_ZN4slog9LogStreamlsIA40_cEERS0_RKT_
FN:66,_ZN4slog9LogStreamlsIA24_cEERS0_RKT_
FN:66,_ZN4slog9LogStreamlsIA14_cEERS0_RKT_
FN:66,_ZN4slog9LogStreamlsIA31_cEERS0_RKT_
FN:66,_ZN4slog9LogStreamlsImEERS0_RKT_
FN:66,_ZN4slog9LogStreamlsIA20_cEERS0_RKT_
FN:66,_ZN4slog9LogStreamlsIA69_cEERS0_RKT_
FNDA:66,_ZN4slog9LogStreamlsIA5_cEERS0_RKT_
FNDA:3,_ZN4slog9LogStreamlsIA15_cEERS0_RKT_
FNDA:24,_ZN4slog9LogStreamlsIA22_cEERS0_RKT_
FNDA:2,_ZN4slog9LogStreamlsIA11_cEERS0_RKT_
FNDA:0,_ZN4slog9LogStreamlsIA9_cEERS0_RKT_
FNDA:0,_ZN4slog9LogStreamlsIA62_cEERS0_RKT_
FNDA:0,_ZN4slog9LogStreamlsIA57_cEERS0_RKT_
FNDA:13,_ZN4slog9LogStreamlsIA17_cEERS0_RKT_
FNDA:24,_ZN4slog9LogStreamlsIA21_cEERS0_RKT_
FNDA:13,_ZN4slog9LogStreamlsIA38_cEERS0_RKT_
FNDA:0,_ZN4slog9LogStreamlsIA55_cEERS0_RKT_
FNDA:5,_ZN4slog9LogStreamlsIA12_cEERS0_RKT_
FNDA:0,_ZN4slog9LogStreamlsIA30_cEERS0_RKT_
FNDA:0,_ZN4slog9LogStreamlsIA45_cEERS0_RKT_
FNDA:178,_ZN4slog9LogStreamlsIA2_cEERS0_RKT_
FNDA:0,_ZN4slog9LogStreamlsIA54_cEERS0_RKT_
FNDA:0,_ZN4slog9LogStreamlsIA86_cEERS0_RKT_
FNDA:0,_ZN4slog9LogStreamlsIA47_cEERS0_RKT_
FNDA:0,_ZN4slog9LogStreamlsIA69_cEERS0_RKT_
FNDA:41,_ZN4slog9LogStreamlsIA20_cEERS0_RKT_
FNDA:6,_ZN4slog9LogStreamlsImEERS0_RKT_
FNDA:10,_ZN4slog9LogStreamlsIA31_cEERS0_RKT_
FNDA:2,_ZN4slog9LogStreamlsIA14_cEERS0_RKT_
FNDA:0,_ZN4slog9LogStreamlsIA40_cEERS0_RKT_
FNDA:7,_ZN4slog9LogStreamlsIA24_cEERS0_RKT_
FNDA:0,_ZN4slog9LogStreamlsIA61_cEERS0_RKT_
FNDA:3,_ZN4slog9LogStreamlsIA35_cEERS0_RKT_
FNDA:14,_ZN4slog9LogStreamlsIA28_cEERS0_RKT_
FNDA:0,_ZN4slog9LogStreamlsIA48_cEERS0_RKT_
FNDA:5,_ZN4slog9LogStreamlsIA50_cEERS0_RKT_
FNDA:6,_ZN4slog9LogStreamlsIA27_cEERS0_RKT_
FNDA:366,_ZN4slog9LogStreamlsINSt7__cxx1112basic_stringIcSt11char_traitsIcESaIcEEEEERS0_RKT_
FNDA:43,_ZN4slog9LogStreamlsIA34_cEERS0_RKT_
FNDA:41,_ZN4slog9LogStreamlsIA36_cEERS0_RKT_
FNDA:4,_ZN4slog9LogStreamlsIA52_cEERS0_RKT_
FNDA:3,_ZN4slog9LogStreamD2Ev
FNDA:0,_ZN4slog9LogStreamlsIA19_cEERS0_RKT_
FNDA:16,_ZN4slog9LogStreamlsIA23_cEERS0_RKT_
FNDA:0,_ZN4slog9LogStreamlsIA37_cEERS0_RKT_
FNDA:10,_ZN4slog9LogStreamlsIPKcEERS0_RKT_
FNDA:0,_ZN4slog9LogStreamlsIA26_cEERS0_RKT_
FNDA:0,_ZN4slog9LogStreamlsIA51_cEERS0_RKT_
FNDA:2,_ZN4slog9LogStreamlsIA18_cEERS0_RKT_
FNDA:82,_ZN4slog9LogStreamlsIiEERS0_RKT_
FNDA:0,_ZN4slog9LogStreamlsIlEERS0_RKT_
FNDA:33,_ZN4slog9LogStreamlsIA25_cEERS0_RKT_
FNDA:0,_ZN4slog9LogStreamlsIA10_cEERS0_RKT_
FNDA:5,_ZN4slog9LogStreamlsIA43_cEERS0_RKT_
FNDA:2,_ZN4slog9LogStreamlsIA6_cEERS0_RKT_
FNDA:0,_ZN4slog9LogStreamlsIA53_cEERS0_RKT_
FNF:50
FNH:30
BRDA:68,0,0,39
BRDA:68,0,1,65
BRDA:68,1,2,31
BRDA:68,1,3,14
BRDA:68,2,4,27
BRDA:68,2,5,196
BRDA:68,3,6,71
BRDA:68,3,7,18
BRDA:68,4,8,30
BRDA:68,4,9,2
BRDA:68,5,10,12
BRDA:68,5,11,71
BRDA:68,6,12,12
BRDA:68,6,13,0
BRDA:68,7,14,43
BRDA:68,7,15,0
BRDA:68,8,16,5
BRDA:68,8,17,0
BRDA:68,9,18,-
BRDA:68,9,19,-
BRDA:68,10,20,53
BRDA:68,10,21,299
BRDA:68,11,22,38
BRDA:68,11,23,0
BRDA:68,12,24,-
BRDA:68,12,25,-
BRDA:87,4294967295,1,841
BRDA:87,4294967295,2,0
BRDA:88,4294967295,1,841
BRDA:88,4294967295,2,0
BRDA:89,4294967295,1,841
BRDA:89,4294967295,2,0
BRF:32
BRH:21
DA:44,3
DA:56,5046
DA:58,2523
DA:66,1026
DA:68,1026
DA:69,361
DA:70,361
DA:73,654
DA:74,1026
DA:80,290
DA:82,290
DA:87,1682
DA:88,1682
DA:89,1682
LF:14
LH:14
end_of_record
TN:
SF:/home/intel/ros2_overlay_ws/src/ros2_openvino_toolkit/dynamic_vino_lib/src/engines/engine.cpp
FN:26,_Z41__static_initialization_and_destruction_0ii
FN:26,_GLOBAL__sub_I_engine.cpp
FNDA:20,_GLOBAL__sub_I_engine.cpp
FNDA:14,_ZN7Engines6EngineC2EN15InferenceEngine15InferencePluginESt10shared_ptrIN6Models9BaseModelEE
FNDA:20,_Z41__static_initialization_and_destruction_0ii
FNF:3
FNH:3
BRDA:25,0,1,14
BRDA:25,0,2,0
BRDA:25,1,4,14
BRDA:25,1,5,0
BRDA:25,2,7,14
BRDA:25,2,8,0
BRDA:26,3,1,20
BRDA:26,3,2,0
BRDA:26,4,3,20
BRDA:26,4,4,0
BRF:10
BRH:5
DA:21,14
DA:25,28
DA:26,94
LF:3
LH:3
end_of_record
TN:
SF:/home/intel/ros2_overlay_ws/src/ros2_openvino_toolkit/dynamic_vino_lib/src/factory.cpp
FN:32,_ZN7Factory21makeInputDeviceByNameERKNSt7__cxx1112basic_stringIcSt11char_traitsIcESaIcEEES7_
FN:88,_GLOBAL__sub_I_factory.cpp
FN:88,_Z41__static_initialization_and_destruction_0ii
FNDA:10,_ZN7Factory16makePluginByNameERKNSt7__cxx1112basic_stringIcSt11char_traitsIcESaIcEEES7_S7_b
FNDA:20,_Z41__static_initialization_and_destruction_0ii
FNDA:0,_ZN7Factory21makeInputDeviceByNameERKNSt7__cxx1112basic_stringIcSt11char_traitsIcESaIcEEES7_
FNDA:20,_GLOBAL__sub_I_factory.cpp
FNF:4
FNH:3
BRDA:36,4294967295,0,-
BRDA:36,4294967295,1,-
BRDA:38,4294967295,0,-
BRDA:38,4294967295,1,-
BRDA:40,4294967295,0,-
BRDA:40,4294967295,1,-
BRDA:42,4294967295,0,-
BRDA:42,4294967295,1,-
BRDA:45,4294967295,0,-
BRDA:45,4294967295,1,-
BRDA:47,4294967295,0,-
BRDA:47,4294967295,1,-
BRDA:50,0,2,-
BRDA:50,0,3,-
BRDA:62,0,1,10
BRDA:62,0,2,0
BRDA:62,1,4,10
BRDA:62,1,5,0
BRDA:62,2,7,10
BRDA:62,2,8,0
BRDA:62,3,10,10
BRDA:62,3,11,0
BRDA:62,4,13,20
BRDA:62,4,14,10
BRDA:62,4,16,-
BRDA:62,4,17,-
BRDA:63,0,1,10
BRDA:63,0,2,0
BRDA:65,4294967295,1,10
BRDA:65,4294967295,2,0
BRDA:67,4294967295,0,10
BRDA:67,4294967295,1,0
BRDA:68,0,1,10
BRDA:68,0,2,0
BRDA:69,0,0,0
BRDA:69,0,1,10
BRDA:75,4294967295,1,-
BRDA:75,4294967295,2,-
BRDA:77,0,0,-
BRDA:77,0,1,-
BRDA:79,0,1,-
BRDA:79,0,2,-
BRDA:79,1,4,-
BRDA:79,1,5,-
BRDA:79,2,7,-
BRDA:79,2,8,-
BRDA:79,3,9,-
BRDA:79,3,10,-
BRDA:79,4,11,-
BRDA:79,4,12,-
BRDA:82,0,0,0
BRDA:82,0,1,10
BRDA:83,0,1,-
BRDA:83,0,2,-
BRDA:83,1,4,-
BRDA:83,1,5,-
BRDA:83,2,7,-
BRDA:83,2,8,-
BRDA:83,3,9,-
BRDA:83,3,10,-
BRDA:83,4,11,-
BRDA:83,4,12,-
BRDA:87,4294967295,1,10
BRDA:87,4294967295,2,0
BRDA:88,3,1,20
BRDA:88,3,2,0
BRDA:88,4,3,20
BRDA:88,4,4,0
BRF:68
BRH:15
DA:32,0
DA:36,0
DA:37,0
DA:38,0
DA:39,0
DA:40,0
DA:41,0
DA:42,0
DA:44,0
DA:45,0
DA:46,0
DA:47,0
DA:48,0
DA:50,0
DA:55,10
DA:62,40
DA:63,10
DA:65,10
DA:67,10
DA:68,10
DA:69,10
DA:75,0
DA:77,0
DA:79,0
DA:80,0
DA:82,10
DA:83,0
DA:84,0
DA:87,20
DA:88,80
LF:30
LH:10
end_of_record
TN:
SF:/home/intel/ros2_overlay_ws/src/ros2_openvino_toolkit/dynamic_vino_lib/src/inferences/age_gender_detection.cpp
FN:27,_ZN16dynamic_vino_lib15AgeGenderResultC2ERKN2cv5Rect_IiEE
FN:64,_ZN16dynamic_vino_lib18AgeGenderDetection13submitRequestEv
FN:86,_ZNK16dynamic_vino_lib18AgeGenderDetection16getResultsLengthEv
FN:92,_ZNK16dynamic_vino_lib18AgeGenderDetection17getLocationResultEi
FN:102,_ZN16dynamic_vino_lib18AgeGenderDetection13observeOutputERKSt10shared_ptrIN7Outputs10BaseOutputEE
FN:110,_ZNK16dynamic_vino_lib18AgeGenderDetection15getFilteredROIsENSt7__cxx1112basic_stringIcSt11char_traitsIcESaIcEEE
FN:122,_GLOBAL__sub_I_age_gender_detection.cpp
FN:122,_Z41__static_initialization_and_destruction_0ii
FNDA:2,_ZN16dynamic_vino_lib18AgeGenderDetection13observeOutputERKSt10shared_ptrIN7Outputs10BaseOutputEE
FNDA:16,_ZN16dynamic_vino_lib18AgeGenderDetection7enqueueERKN2cv3MatERKNS1_5Rect_IiEE
FNDA:16,_ZN16dynamic_vino_lib15AgeGenderResultC2ERKN2cv5Rect_IiEE
FNDA:3,_ZN16dynamic_vino_lib18AgeGenderDetectionC2Ev
FNDA:0,_ZNK16dynamic_vino_lib18AgeGenderDetection17getLocationResultEi
FNDA:2,_ZN16dynamic_vino_lib18AgeGenderDetection13submitRequestEv
FNDA:16,_ZNK16dynamic_vino_lib18AgeGenderDetection16getResultsLengthEv
FNDA:20,_Z41__static_initialization_and_destruction_0ii
FNDA:20,_GLOBAL__sub_I_age_gender_detection.cpp
FNDA:2,_ZN16dynamic_vino_lib18AgeGenderDetection12fetchResultsEv
FNDA:3,_ZN16dynamic_vino_lib18AgeGenderDetection11loadNetworkESt10shared_ptrIN6Models23AgeGenderDetectionModelEE
FNDA:0,_ZNK16dynamic_vino_lib18AgeGenderDetection15getFilteredROIsENSt7__cxx1112basic_stringIcSt11char_traitsIcESaIcEEE
FNDA:0,_ZNK16dynamic_vino_lib18AgeGenderDetection7getNameB5cxx11Ev
FNF:13
FNH:10
BRDA:51,0,0,2
BRDA:51,0,1,14
BRDA:54,4294967295,1,16
BRDA:54,4294967295,2,0
BRDA:55,0,1,16
BRDA:55,0,2,0
BRDA:56,0,0,16
BRDA:56,0,1,0
BRDA:72,4294967295,0,2
BRDA:72,4294967295,1,0
BRDA:76,0,1,2
BRDA:76,0,2,0
BRDA:77,0,1,2
BRDA:77,0,2,0
BRDA:79,0,0,16
BRDA:79,0,1,2
BRDA:105,0,0,2
BRDA:105,0,1,0
BRDA:113,0,0,-
BRDA:113,0,1,-
BRDA:118,1,0,-
BRDA:118,1,1,-
BRDA:119,0,1,-
BRDA:119,0,2,-
BRDA:122,3,1,20
BRDA:122,3,2,0
BRDA:122,4,3,20
BRDA:122,4,4,0
BRF:28
BRH:13
DA:27,16
DA:28,16
DA:30,16
DA:33,3
DA:34,3
DA:36,3
DA:40,3
DA:44,3
DA:45,3
DA:47,16
DA:51,16
DA:54,16
DA:55,16
DA:56,16
DA:59,16
DA:60,16
DA:64,2
DA:66,2
DA:69,2
DA:71,2
DA:72,2
DA:75,2
DA:76,2
DA:77,4
DA:79,18
DA:80,16
DA:81,16
DA:86,16
DA:88,32
DA:92,0
DA:94,0
DA:97,0
DA:99,0
DA:102,2
DA:105,2
DA:106,2
DA:108,2
DA:110,0
DA:113,0
DA:114,0
DA:115,0
DA:118,0
DA:119,0
DA:121,0
DA:122,80
LF:45
LH:34
end_of_record
TN:
SF:/home/intel/ros2_overlay_ws/src/ros2_openvino_toolkit/dynamic_vino_lib/src/inferences/base_filter.cpp
FN:25,_ZN16dynamic_vino_lib10BaseFilterC2Ev
FN:27,_ZN16dynamic_vino_lib10BaseFilter23isValidFilterConditionsERKNSt7__cxx1112basic_stringIcSt11char_traitsIcESaIcEEE
FN:33,_ZN16dynamic_vino_lib10BaseFilter22acceptFilterConditionsERKNSt7__cxx1112basic_stringIcSt11char_traitsIcESaIcEEE
FN:41,_ZN16dynamic_vino_lib10BaseFilter18isRelationOperatorERKNSt7__cxx1112basic_stringIcSt11char_traitsIcESaIcEEE
FN:51,_ZN16dynamic_vino_lib10BaseFilter15isLogicOperatorERKNSt7__cxx1112basic_stringIcSt11char_traitsIcESaIcEEE
FN:61,_ZN16dynamic_vino_lib10BaseFilter9isPriorToERKNSt7__cxx1112basic_stringIcSt11char_traitsIcESaIcEEES8_
FN:70,_ZN16dynamic_vino_lib10BaseFilter9boolToStrB5cxx11Eb
FN:76,_ZN16dynamic_vino_lib10BaseFilter9strToBoolERKNSt7__cxx1112basic_stringIcSt11char_traitsIcESaIcEEE
FN:87,_ZNK16dynamic_vino_lib10BaseFilter19getSuffixConditionsB5cxx11Ev
FN:92,_ZN16dynamic_vino_lib10BaseFilter14logicOperationERKNSt7__cxx1112basic_stringIcSt11char_traitsIcESaIcEEES8_S8_
FN:105,_ZN16dynamic_vino_lib10BaseFilter13stringCompareERKNSt7__cxx1112basic_stringIcSt11char_traitsIcESaIcEEES8_S8_
FN:118,_ZN16dynamic_vino_lib10BaseFilter12floatCompareEfRKNSt7__cxx1112basic_stringIcSt11char_traitsIcESaIcEEEf
FN:135,_ZN16dynamic_vino_lib10BaseFilter13stringToFloatERKNSt7__cxx1112basic_stringIcSt11char_traitsIcESaIcEEE
FN:146,_ZN16dynamic_vino_lib10BaseFilter5splitERKNSt7__cxx1112basic_stringIcSt11char_traitsIcESaIcEEE
FN:177,_ZN16dynamic_vino_lib10BaseFilter13infixToSuffixERSt6vectorINSt7__cxx1112basic_stringIcSt11char_traitsIcESaIcEEESaIS7_EE
FN:209,_ZN16dynamic_vino_lib10BaseFilter5stripERKNSt7__cxx1112basic_stringIcSt11char_traitsIcESaIcEEE
FN:218,_GLOBAL__sub_I_base_filter.cpp
FNDA:20,_Z41__static_initialization_and_destruction_0ii
FNDA:0,_ZN16dynamic_vino_lib10BaseFilter13stringToFloatERKNSt7__cxx1112basic_stringIcSt11char_traitsIcESaIcEEE
FNDA:0,_ZN16dynamic_vino_lib10BaseFilter9isPriorToERKNSt7__cxx1112basic_stringIcSt11char_traitsIcESaIcEEES8_
FNDA:0,_ZNK16dynamic_vino_lib10BaseFilter19getSuffixConditionsB5cxx11Ev
FNDA:0,_ZN16dynamic_vino_lib10BaseFilter22acceptFilterConditionsERKNSt7__cxx1112basic_stringIcSt11char_traitsIcESaIcEEE
FNDA:0,_ZN16dynamic_vino_lib10BaseFilter9boolToStrB5cxx11Eb
FNDA:0,_ZN16dynamic_vino_lib10BaseFilter15isLogicOperatorERKNSt7__cxx1112basic_stringIcSt11char_traitsIcESaIcEEE
FNDA:0,_ZN16dynamic_vino_lib10BaseFilter5splitERKNSt7__cxx1112basic_stringIcSt11char_traitsIcESaIcEEE
FNDA:6,_ZN16dynamic_vino_lib10BaseFilter23isValidFilterConditionsERKNSt7__cxx1112basic_stringIcSt11char_traitsIcESaIcEEE
FNDA:20,_GLOBAL__sub_I_base_filter.cpp
FNDA:6,_ZN16dynamic_vino_lib10BaseFilter5stripERKNSt7__cxx1112basic_stringIcSt11char_traitsIcESaIcEEE
FNDA:0,_ZN16dynamic_vino_lib10BaseFilter18isRelationOperatorERKNSt7__cxx1112basic_stringIcSt11char_traitsIcESaIcEEE
FNDA:0,_ZN16dynamic_vino_lib10BaseFilter12floatCompareEfRKNSt7__cxx1112basic_stringIcSt11char_traitsIcESaIcEEEf
FNDA:8,_ZN16dynamic_vino_lib10BaseFilterC2Ev
FNDA:0,_ZN16dynamic_vino_lib10BaseFilter9strToBoolERKNSt7__cxx1112basic_stringIcSt11char_traitsIcESaIcEEE
FNDA:0,_ZN16dynamic_vino_lib10BaseFilter13stringCompareERKNSt7__cxx1112basic_stringIcSt11char_traitsIcESaIcEEES8_S8_
FNDA:0,_ZN16dynamic_vino_lib10BaseFilter14logicOperationERKNSt7__cxx1112basic_stringIcSt11char_traitsIcESaIcEEES8_S8_
FNDA:0,_ZN16dynamic_vino_lib10BaseFilter13infixToSuffixERSt6vectorINSt7__cxx1112basic_stringIcSt11char_traitsIcESaIcEEESaIS7_EE
FNF:18
FNH:5
BRDA:25,1,2,8
BRDA:25,1,3,0
BRDA:25,2,5,8
BRDA:25,2,6,0
BRDA:25,3,8,8
BRDA:25,3,9,0
BRDA:25,4,11,8
BRDA:25,4,12,0
BRDA:25,5,14,8
BRDA:25,5,15,0
BRDA:25,6,17,8
BRDA:25,6,18,0
BRDA:25,7,20,0
BRDA:25,7,21,8
BRDA:25,10,22,48
BRDA:25,10,23,8
BRDA:25,11,25,8
BRDA:25,11,26,0
BRDA:25,12,28,8
BRDA:25,12,29,0
BRDA:25,13,31,0
BRDA:25,13,32,8
BRDA:25,16,33,16
BRDA:25,16,34,8
BRDA:25,17,35,-
BRDA:25,17,36,-
BRDA:25,17,37,-
BRDA:25,17,38,-
BRDA:38,4294967295,1,-
BRDA:38,4294967295,2,-
BRDA:43,0,1,-
BRDA:43,0,2,-
BRDA:53,0,1,-
BRDA:53,0,2,-
BRDA:64,0,1,-
BRDA:64,0,2,-
BRDA:64,1,4,-
BRDA:64,1,5,-
BRDA:72,0,0,-
BRDA:72,0,1,-
BRDA:78,0,1,-
BRDA:78,0,2,-
BRDA:78,1,4,-
BRDA:78,1,5,-
BRDA:95,0,1,-
BRDA:95,0,2,-
BRDA:96,0,1,-
BRDA:96,0,2,-
BRDA:96,1,4,-
BRDA:96,1,5,-
BRDA:97,0,1,-
BRDA:97,0,2,-
BRDA:98,0,1,-
BRDA:98,0,2,-
BRDA:98,1,4,-
BRDA:98,1,5,-
BRDA:108,0,1,-
BRDA:108,0,2,-
BRDA:110,0,1,-
BRDA:110,0,2,-
BRDA:121,0,1,-
BRDA:121,0,2,-
BRDA:123,0,1,-
BRDA:123,0,2,-
BRDA:125,0,1,-
BRDA:125,0,2,-
BRDA:127,0,1,-
BRDA:127,0,2,-
BRDA:141,4294967295,1,-
BRDA:141,4294967295,2,-
BRDA:141,4294967295,4,-
BRDA:141,4294967295,5,-
BRDA:141,4294967295,7,-
BRDA:141,4294967295,8,-
BRDA:150,0,1,-
BRDA:150,0,2,-
BRDA:151,0,1,-
BRDA:151,0,2,-
BRDA:152,0,1,-
BRDA:152,0,2,-
BRDA:153,0,1,-
BRDA:153,0,2,-
BRDA:156,0,0,-
BRDA:156,0,1,-
BRDA:157,0,0,-
BRDA:157,0,1,-
BRDA:158,0,1,-
BRDA:158,0,2,-
BRDA:158,1,3,-
BRDA:158,1,4,-
BRDA:159,0,1,-
BRDA:159,0,2,-
BRDA:160,0,0,-
BRDA:160,0,1,-
BRDA:161,0,1,-
BRDA:161,0,2,-
BRDA:163,0,1,-
BRDA:163,0,2,-
BRDA:164,0,1,-
BRDA:164,0,2,-
BRDA:171,0,0,-
BRDA:171,0,1,-
BRDA:172,0,1,-
BRDA:172,0,2,-
BRDA:181,0,0,-
BRDA:181,0,1,-
BRDA:182,0,1,-
BRDA:182,0,2,-
BRDA:184,0,1,-
BRDA:184,0,2,-
BRDA:185,0,0,-
BRDA:185,0,1,-
BRDA:185,1,3,-
BRDA:185,1,4,-
BRDA:186,0,1,-
BRDA:186,0,2,-
BRDA:189,0,0,-
BRDA:189,0,1,-
BRDA:190,0,1,-
BRDA:190,0,2,-
BRDA:193,0,1,-
BRDA:193,0,2,-
BRDA:193,1,3,-
BRDA:193,1,4,-
BRDA:193,2,6,-
BRDA:193,2,7,-
BRDA:193,3,8,-
BRDA:193,3,9,-
BRDA:194,0,0,-
BRDA:194,0,1,-
BRDA:194,1,3,-
BRDA:194,1,4,-
BRDA:194,2,5,-
BRDA:194,2,6,-
BRDA:200,0,1,-
BRDA:200,0,2,-
BRDA:203,0,0,-
BRDA:203,0,1,-
BRDA:204,0,1,-
BRDA:204,0,2,-
BRDA:212,0,0,0
BRDA:212,0,1,6
BRDA:213,0,0,-
BRDA:213,0,1,-
BRDA:218,3,1,20
BRDA:218,3,2,0
BRDA:218,4,3,20
BRDA:218,4,4,0
BRF:148
BRH:17
DA:25,72
DA:27,6
DA:30,6
DA:33,0
DA:36,0
DA:37,0
DA:38,0
DA:39,0
DA:41,0
DA:43,0
DA:48,0
DA:51,0
DA:53,0
DA:58,0
DA:61,0
DA:64,0
DA:70,0
DA:72,0
DA:73,0
DA:76,0
DA:78,0
DA:81,0
DA:83,0
DA:87,0
DA:89,0
DA:92,0
DA:95,0
DA:96,0
DA:97,0
DA:98,0
DA:100,0
DA:101,0
DA:105,0
DA:108,0
DA:109,0
DA:110,0
DA:111,0
DA:113,0
DA:114,0
DA:118,0
DA:121,0
DA:122,0
DA:123,0
DA:124,0
DA:125,0
DA:126,0
DA:127,0
DA:128,0
DA:130,0
DA:131,0
DA:135,0
DA:140,0
DA:141,0
DA:143,0
DA:146,0
DA:149,0
DA:150,0
DA:151,0
DA:152,0
DA:153,0
DA:156,0
DA:157,0
DA:158,0
DA:159,0
DA:160,0
DA:161,0
DA:163,0
DA:164,0
DA:165,0
DA:166,0
DA:171,0
DA:172,0
DA:174,0
DA:177,0
DA:181,0
DA:182,0
DA:184,0
DA:185,0
DA:186,0
DA:189,0
DA:190,0
DA:193,0
DA:194,0
DA:195,0
DA:200,0
DA:203,0
DA:204,0
DA:207,0
DA:209,6
DA:211,6
DA:212,6
DA:213,0
DA:214,0
DA:217,6
DA:218,80
LF:95
LH:8
end_of_record
TN:
SF:/home/intel/ros2_overlay_ws/src/ros2_openvino_toolkit/dynamic_vino_lib/src/inferences/base_inference.cpp
FN:25,_ZN16dynamic_vino_lib6ResultC2ERKN2cv5Rect_IiEE
FN:68,_ZN16dynamic_vino_lib13BaseInference12fetchResultsEv
FN:75,_Z41__static_initialization_and_destruction_0ii
FN:75,_GLOBAL__sub_I_base_inference.cpp
FNDA:454,_ZN16dynamic_vino_lib6ResultC2ERKN2cv5Rect_IiEE
FNDA:14,_ZN16dynamic_vino_lib13BaseInference10loadEngineESt10shared_ptrIN7Engines6EngineEE
FNDA:20,_GLOBAL__sub_I_base_inference.cpp
FNDA:10,_ZN16dynamic_vino_lib13BaseInference13submitRequestEv
FNDA:0,_ZN16dynamic_vino_lib13BaseInference18SynchronousRequestEv
FNDA:20,_Z41__static_initialization_and_destruction_0ii
FNDA:10,_ZN16dynamic_vino_lib13BaseInference12fetchResultsEv
FNF:7
FNH:6
BRDA:42,0,0,10
BRDA:42,0,1,0
BRDA:45,0,0,10
BRDA:45,0,1,0
BRDA:56,0,0,-
BRDA:56,0,1,-
BRDA:59,0,0,-
BRDA:59,0,1,-
BRDA:70,0,0,10
BRDA:70,0,1,0
BRDA:75,3,1,20
BRDA:75,3,2,0
BRDA:75,4,3,20
BRDA:75,4,4,0
BRF:14
BRH:5
DA:25,454
DA:28,454
DA:35,14
DA:38,14
DA:40,10
DA:42,10
DA:45,10
DA:48,10
DA:49,10
DA:50,10
DA:51,10
DA:54,0
DA:56,0
DA:59,0
DA:62,0
DA:63,0
DA:64,0
DA:65,0
DA:68,10
DA:70,10
DA:73,10
DA:74,10
DA:75,80
LF:23
LH:16
end_of_record
TN:
SF:/home/intel/ros2_overlay_ws/src/ros2_openvino_toolkit/dynamic_vino_lib/src/inferences/base_reidentification.cpp
FN:36,_ZN16dynamic_vino_lib7Tracker15processNewTrackERKSt6vectorIfSaIfEE
FN:63,_ZN16dynamic_vino_lib7Tracker14calcSimilarityERKSt6vectorIfSaIfEES5_
FN:113,_ZN16dynamic_vino_lib7Tracker11addNewTrackERKSt6vectorIfSaIfEE
FN:128,_ZN16dynamic_vino_lib7Tracker14getCurrentTimeEv
FN:155,_ZN16dynamic_vino_lib7Tracker18loadTracksFromFileENSt7__cxx1112basic_stringIcSt11char_traitsIcESaIcEEE
FN:181,_GLOBAL__sub_I_base_reidentification.cpp
FN:181,_Z41__static_initialization_and_destruction_0ii
FNDA:0,_ZN16dynamic_vino_lib7Tracker16saveTracksToFileENSt7__cxx1112basic_stringIcSt11char_traitsIcESaIcEEE
FNDA:0,_ZN16dynamic_vino_lib7Tracker20findMostSimilarTrackERKSt6vectorIfSaIfEERi
FNDA:0,_ZN16dynamic_vino_lib7Tracker18removeEarlestTrackEv
FNDA:0,_ZN16dynamic_vino_lib7Tracker18loadTracksFromFileENSt7__cxx1112basic_stringIcSt11char_traitsIcESaIcEEE
FNDA:0,_ZN16dynamic_vino_lib7Tracker16updateMatchTrackEiRKSt6vectorIfSaIfEE
FNDA:20,_GLOBAL__sub_I_base_reidentification.cpp
FNDA:20,_Z41__static_initialization_and_destruction_0ii
FNDA:0,_ZN16dynamic_vino_lib7Tracker15processNewTrackERKSt6vectorIfSaIfEE
FNDA:0,_ZN16dynamic_vino_lib7TrackerC2Eidd
FNDA:0,_ZN16dynamic_vino_lib7Tracker11addNewTrackERKSt6vectorIfSaIfEE
FNDA:0,_ZN16dynamic_vino_lib7Tracker14calcSimilarityERKSt6vectorIfSaIfEES5_
FNDA:0,_ZN16dynamic_vino_lib7Tracker14getCurrentTimeEv
FNF:12
FNH:2
BRDA:40,4294967295,0,-
BRDA:40,4294967295,1,-
BRDA:42,0,0,-
BRDA:42,0,1,-
BRDA:53,0,0,-
BRDA:53,0,1,-
BRDA:55,4294967295,0,-
BRDA:55,4294967295,1,-
BRDA:66,0,0,-
BRDA:66,0,1,-
BRDA:68,4294967295,2,-
BRDA:68,4294967295,3,-
BRDA:69,0,1,-
BRDA:69,0,2,-
BRDA:69,1,4,-
BRDA:69,1,5,-
BRDA:73,0,0,-
BRDA:73,0,1,-
BRDA:80,0,0,-
BRDA:80,0,1,-
BRDA:90,0,0,-
BRDA:90,0,1,-
BRDA:103,0,0,-
BRDA:103,0,1,-
BRDA:104,0,0,-
BRDA:104,0,1,-
BRDA:115,0,0,-
BRDA:115,0,1,-
BRDA:117,4294967295,1,-
BRDA:117,4294967295,2,-
BRDA:121,4294967295,1,-
BRDA:121,4294967295,2,-
BRDA:138,4294967295,0,-
BRDA:138,4294967295,1,-
BRDA:139,0,1,-
BRDA:139,0,2,-
BRDA:139,1,4,-
BRDA:139,1,5,-
BRDA:142,0,0,-
BRDA:142,0,1,-
BRDA:143,0,1,-
BRDA:143,0,2,-
BRDA:144,0,1,-
BRDA:144,0,2,-
BRDA:145,0,0,-
BRDA:145,0,1,-
BRDA:146,0,1,-
BRDA:146,0,2,-
BRDA:148,0,1,-
BRDA:148,0,2,-
BRDA:150,0,1,-
BRDA:150,0,2,-
BRDA:151,0,1,-
BRDA:151,0,2,-
BRDA:151,1,4,-
BRDA:151,1,5,-
BRDA:158,4294967295,0,-
BRDA:158,4294967295,1,-
BRDA:159,0,1,-
BRDA:159,0,2,-
BRDA:159,1,4,-
BRDA:159,1,5,-
BRDA:163,0,0,-
BRDA:163,0,1,-
BRDA:167,0,1,-
BRDA:167,0,2,-
BRDA:168,0,0,-
BRDA:168,0,1,-
BRDA:171,0,1,-
BRDA:171,0,2,-
BRDA:175,0,1,-
BRDA:175,0,2,-
BRDA:178,0,1,-
BRDA:178,0,2,-
BRDA:179,0,1,-
BRDA:179,0,2,-
BRDA:179,1,4,-
BRDA:179,1,5,-
BRDA:181,3,1,20
BRDA:181,3,2,0
BRDA:181,4,3,20
BRDA:181,4,4,0
BRF:82
BRH:2
DA:30,0
DA:31,0
DA:34,0
DA:36,0
DA:39,0
DA:40,0
DA:41,0
DA:42,0
DA:43,0
DA:45,0
DA:48,0
DA:52,0
DA:53,0
DA:54,0
DA:55,0
DA:57,0
DA:60,0
DA:63,0
DA:66,0
DA:67,0
DA:68,0
DA:69,0
DA:73,0
DA:74,0
DA:75,0
DA:76,0
DA:77,0
DA:78,0
DA:80,0
DA:82,0
DA:84,0
DA:87,0
DA:90,0
DA:91,0
DA:92,0
DA:94,0
DA:96,0
DA:98,0
DA:100,0
DA:103,0
DA:104,0
DA:110,0
DA:113,0
DA:115,0
DA:116,0
DA:117,0
DA:119,0
DA:121,0
DA:122,0
DA:123,0
DA:124,0
DA:125,0
DA:128,0
DA:131,0
DA:132,0
DA:135,0
DA:137,0
DA:138,0
DA:139,0
DA:142,0
DA:143,0
DA:144,0
DA:145,0
DA:146,0
DA:148,0
DA:150,0
DA:151,0
DA:155,0
DA:157,0
DA:158,0
DA:159,0
DA:163,0
DA:167,0
DA:168,0
DA:171,0
DA:174,0
DA:175,0
DA:178,0
DA:179,0
DA:181,80
LF:80
LH:1
end_of_record
TN:
SF:/home/intel/ros2_overlay_ws/src/ros2_openvino_toolkit/dynamic_vino_lib/src/inferences/emotions_detection.cpp
FN:29,_ZN16dynamic_vino_lib14EmotionsResultC2ERKN2cv5Rect_IiEE
FN:68,_ZN16dynamic_vino_lib17EmotionsDetection13submitRequestEv
FN:109,_ZNK16dynamic_vino_lib17EmotionsDetection16getResultsLengthEv
FN:115,_ZNK16dynamic_vino_lib17EmotionsDetection17getLocationResultEi
FN:125,_ZN16dynamic_vino_lib17EmotionsDetection13observeOutputERKSt10shared_ptrIN7Outputs10BaseOutputEE
FN:133,_ZNK16dynamic_vino_lib17EmotionsDetection15getFilteredROIsENSt7__cxx1112basic_stringIcSt11char_traitsIcESaIcEEE
FN:145,_Z41__static_initialization_and_destruction_0ii
FN:145,_GLOBAL__sub_I_emotions_detection.cpp
FNDA:3,_ZN16dynamic_vino_lib17EmotionsDetectionC2Ev
FNDA:2,_ZN16dynamic_vino_lib17EmotionsDetection12fetchResultsEv
FNDA:3,_ZN16dynamic_vino_lib17EmotionsDetection11loadNetworkESt10shared_ptrIN6Models21EmotionDetectionModelEE
FNDA:0,_ZNK16dynamic_vino_lib17EmotionsDetection7getNameB5cxx11Ev
FNDA:2,_ZN16dynamic_vino_lib17EmotionsDetection13submitRequestEv
FNDA:0,_ZNK16dynamic_vino_lib17EmotionsDetection17getLocationResultEi
FNDA:20,_Z41__static_initialization_and_destruction_0ii
FNDA:16,_ZN16dynamic_vino_lib14EmotionsResultC2ERKN2cv5Rect_IiEE
FNDA:16,_ZN16dynamic_vino_lib17EmotionsDetection7enqueueERKN2cv3MatERKNS1_5Rect_IiEE
FNDA:2,_ZN16dynamic_vino_lib17EmotionsDetection13observeOutputERKSt10shared_ptrIN7Outputs10BaseOutputEE
FNDA:0,_ZNK16dynamic_vino_lib17EmotionsDetection15getFilteredROIsENSt7__cxx1112basic_stringIcSt11char_traitsIcESaIcEEE
FNDA:16,_ZNK16dynamic_vino_lib17EmotionsDetection16getResultsLengthEv
FNDA:20,_GLOBAL__sub_I_emotions_detection.cpp
FNF:13
FNH:10
BRDA:53,0,0,2
BRDA:53,0,1,14
BRDA:56,4294967295,1,16
BRDA:56,4294967295,2,0
BRDA:57,0,1,16
BRDA:57,0,2,0
BRDA:58,0,0,0
BRDA:58,0,1,16
BRDA:64,4294967295,1,16
BRDA:64,4294967295,2,0
BRDA:76,4294967295,0,2
BRDA:76,4294967295,1,0
BRDA:81,4294967295,1,2
BRDA:81,4294967295,2,0
BRDA:86,0,0,0
BRDA:86,0,1,2
BRDA:87,0,1,-
BRDA:87,0,2,-
BRDA:87,1,4,-
BRDA:87,1,5,-
BRDA:88,0,1,-
BRDA:88,0,2,-
BRDA:89,0,1,-
BRDA:89,0,2,-
BRDA:89,1,4,-
BRDA:89,1,5,-
BRDA:89,2,7,-
BRDA:89,2,8,-
BRDA:90,0,1,-
BRDA:90,0,2,-
BRDA:90,1,4,-
BRDA:90,1,5,-
BRDA:92,0,1,-
BRDA:92,0,2,-
BRDA:93,1,2,-
BRDA:93,1,3,-
BRDA:93,2,5,-
BRDA:93,2,6,-
BRDA:99,0,0,16
BRDA:99,0,1,2
BRDA:128,0,0,2
BRDA:128,0,1,0
BRDA:136,0,0,-
BRDA:136,0,1,-
BRDA:141,1,0,-
BRDA:141,1,1,-
BRDA:141,2,3,-
BRDA:141,2,4,-
BRDA:142,0,1,-
BRDA:142,0,2,-
BRDA:145,3,1,20
BRDA:145,3,2,0
BRDA:145,4,3,20
BRDA:145,4,4,0
BRF:54
BRH:14
DA:29,16
DA:30,16
DA:32,16
DA:35,3
DA:36,3
DA:38,3
DA:42,3
DA:46,3
DA:47,3
DA:49,16
DA:53,16
DA:54,2
DA:56,16
DA:57,16
DA:58,16
DA:59,0
DA:63,16
DA:64,16
DA:68,2
DA:70,2
DA:73,2
DA:75,2
DA:76,2
DA:79,4
DA:81,2
DA:85,2
DA:86,2
DA:87,0
DA:88,0
DA:89,0
DA:90,0
DA:92,0
DA:93,0
DA:98,4
DA:99,18
DA:100,16
DA:102,32
DA:103,48
DA:109,16
DA:111,32
DA:115,0
DA:117,0
DA:120,0
DA:122,0
DA:125,2
DA:128,2
DA:129,2
DA:131,2
DA:133,0
DA:136,0
DA:137,0
DA:138,0
DA:141,0
DA:142,0
DA:144,0
DA:145,80
LF:56
LH:38
end_of_record
TN:
SF:/home/intel/ros2_overlay_ws/src/ros2_openvino_toolkit/dynamic_vino_lib/src/inferences/face_detection.cpp
FN:30,_ZN16dynamic_vino_lib19FaceDetectionResultC2ERKN2cv5Rect_IiEE
FN:36,_ZN16dynamic_vino_lib13FaceDetectionC2Ebd
FN:41,_GLOBAL__sub_I_face_detection.cpp
FNDA:20,_GLOBAL__sub_I_face_detection.cpp
FNDA:20,_Z41__static_initialization_and_destruction_0ii
FNDA:0,_ZN16dynamic_vino_lib19FaceDetectionResultC2ERKN2cv5Rect_IiEE
FNDA:0,_ZN16dynamic_vino_lib13FaceDetectionC2Ebd
FNF:4
FNH:2
BRDA:41,3,1,20
BRDA:41,3,2,0
BRDA:41,4,3,20
BRDA:41,4,4,0
BRF:4
BRH:2
DA:30,0
DA:31,0
DA:33,0
DA:36,0
DA:38,0
DA:39,0
DA:41,80
LF:7
LH:1
end_of_record
TN:
SF:/home/intel/ros2_overlay_ws/src/ros2_openvino_toolkit/dynamic_vino_lib/src/inferences/face_reidentification.cpp
FN:28,_ZN16dynamic_vino_lib26FaceReidentificationResultC2ERKN2cv5Rect_IiEE
FN:63,_ZN16dynamic_vino_lib20FaceReidentification13submitRequestEv
FN:88,_ZNK16dynamic_vino_lib20FaceReidentification16getResultsLengthEv
FN:94,_ZNK16dynamic_vino_lib20FaceReidentification17getLocationResultEi
FN:104,_ZN16dynamic_vino_lib20FaceReidentification13observeOutputERKSt10shared_ptrIN7Outputs10BaseOutputEE
FN:112,_ZNK16dynamic_vino_lib20FaceReidentification15getFilteredROIsENSt7__cxx1112basic_stringIcSt11char_traitsIcESaIcEEE
FN:124,_GLOBAL__sub_I_face_reidentification.cpp
FN:124,_Z41__static_initialization_and_destruction_0ii
FNDA:20,_GLOBAL__sub_I_face_reidentification.cpp
FNDA:0,_ZNK16dynamic_vino_lib20FaceReidentification15getFilteredROIsENSt7__cxx1112basic_stringIcSt11char_traitsIcESaIcEEE
FNDA:0,_ZN16dynamic_vino_lib20FaceReidentification11loadNetworkESt10shared_ptrIN6Models25FaceReidentificationModelEE
FNDA:0,_ZN16dynamic_vino_lib20FaceReidentificationC2Ed
FNDA:0,_ZN16dynamic_vino_lib20FaceReidentification13submitRequestEv
FNDA:0,_ZNK16dynamic_vino_lib20FaceReidentification7getNameB5cxx11Ev
FNDA:0,_ZN16dynamic_vino_lib26FaceReidentificationResultC2ERKN2cv5Rect_IiEE
FNDA:20,_Z41__static_initialization_and_destruction_0ii
FNDA:0,_ZN16dynamic_vino_lib20FaceReidentification7enqueueERKN2cv3MatERKNS1_5Rect_IiEE
FNDA:0,_ZNK16dynamic_vino_lib20FaceReidentification17getLocationResultEi
FNDA:0,_ZN16dynamic_vino_lib20FaceReidentification13observeOutputERKSt10shared_ptrIN7Outputs10BaseOutputEE
FNDA:0,_ZN16dynamic_vino_lib20FaceReidentification12fetchResultsEv
FNDA:0,_ZNK16dynamic_vino_lib20FaceReidentification16getResultsLengthEv
FNF:13
FNH:2
BRDA:50,0,0,-
BRDA:50,0,1,-
BRDA:53,4294967295,1,-
BRDA:53,4294967295,2,-
BRDA:53,0,3,-
BRDA:53,0,4,-
BRDA:59,4294967295,1,-
BRDA:59,4294967295,2,-
BRDA:71,4294967295,0,-
BRDA:71,4294967295,1,-
BRDA:75,0,1,-
BRDA:75,0,2,-
BRDA:76,0,1,-
BRDA:76,0,2,-
BRDA:77,0,1,-
BRDA:77,0,2,-
BRDA:77,1,3,-
BRDA:77,1,4,-
BRDA:79,0,1,-
BRDA:79,0,2,-
BRDA:80,0,1,-
BRDA:80,0,2,-
BRDA:80,1,4,-
BRDA:80,1,5,-
BRDA:84,0,0,-
BRDA:84,0,1,-
BRDA:107,0,0,-
BRDA:107,0,1,-
BRDA:115,0,0,-
BRDA:115,0,1,-
BRDA:120,1,0,-
BRDA:120,1,1,-
BRDA:120,2,3,-
BRDA:120,2,4,-
BRDA:121,0,1,-
BRDA:121,0,2,-
BRDA:124,3,1,20
BRDA:124,3,2,0
BRDA:124,4,3,20
BRDA:124,4,4,0
BRF:40
BRH:2
DA:28,0
DA:29,0
DA:30,0
DA:33,0
DA:34,0
DA:36,0
DA:37,0
DA:40,0
DA:44,0
DA:45,0
DA:47,0
DA:50,0
DA:51,0
DA:53,0
DA:54,0
DA:58,0
DA:59,0
DA:63,0
DA:65,0
DA:68,0
DA:70,0
DA:71,0
DA:73,0
DA:75,0
DA:76,0
DA:77,0
DA:79,0
DA:80,0
DA:81,0
DA:84,0
DA:88,0
DA:90,0
DA:94,0
DA:96,0
DA:99,0
DA:101,0
DA:104,0
DA:107,0
DA:108,0
DA:110,0
DA:112,0
DA:115,0
DA:116,0
DA:117,0
DA:120,0
DA:121,0
DA:123,0
DA:124,80
LF:48
LH:1
end_of_record
TN:
SF:/home/intel/ros2_overlay_ws/src/ros2_openvino_toolkit/dynamic_vino_lib/src/inferences/head_pose_detection.cpp
FN:28,_ZN16dynamic_vino_lib14HeadPoseResultC2ERKN2cv5Rect_IiEE
FN:65,_ZN16dynamic_vino_lib17HeadPoseDetection13submitRequestEv
FN:89,_ZNK16dynamic_vino_lib17HeadPoseDetection16getResultsLengthEv
FN:95,_ZNK16dynamic_vino_lib17HeadPoseDetection17getLocationResultEi
FN:105,_ZN16dynamic_vino_lib17HeadPoseDetection13observeOutputERKSt10shared_ptrIN7Outputs10BaseOutputEE
FN:113,_ZNK16dynamic_vino_lib17HeadPoseDetection15getFilteredROIsENSt7__cxx1112basic_stringIcSt11char_traitsIcESaIcEEE
FN:125,_GLOBAL__sub_I_head_pose_detection.cpp
FN:125,_Z41__static_initialization_and_destruction_0ii
FNDA:3,_ZN16dynamic_vino_lib17HeadPoseDetectionC2Ev
FNDA:0,_ZNK16dynamic_vino_lib17HeadPoseDetection17getLocationResultEi
FNDA:34,_ZNK16dynamic_vino_lib17HeadPoseDetection16getResultsLengthEv
FNDA:0,_ZNK16dynamic_vino_lib17HeadPoseDetection7getNameB5cxx11Ev
FNDA:2,_ZN16dynamic_vino_lib17HeadPoseDetection13observeOutputERKSt10shared_ptrIN7Outputs10BaseOutputEE
FNDA:3,_ZN16dynamic_vino_lib17HeadPoseDetection11loadNetworkESt10shared_ptrIN6Models22HeadPoseDetectionModelEE
FNDA:0,_ZNK16dynamic_vino_lib17HeadPoseDetection15getFilteredROIsENSt7__cxx1112basic_stringIcSt11char_traitsIcESaIcEEE
FNDA:20,_Z41__static_initialization_and_destruction_0ii
FNDA:2,_ZN16dynamic_vino_lib17HeadPoseDetection13submitRequestEv
FNDA:2,_ZN16dynamic_vino_lib17HeadPoseDetection12fetchResultsEv
FNDA:16,_ZN16dynamic_vino_lib14HeadPoseResultC2ERKN2cv5Rect_IiEE
FNDA:16,_ZN16dynamic_vino_lib17HeadPoseDetection7enqueueERKN2cv3MatERKNS1_5Rect_IiEE
FNDA:20,_GLOBAL__sub_I_head_pose_detection.cpp
FNF:13
FNH:10
BRDA:52,0,0,2
BRDA:52,0,1,14
BRDA:55,4294967295,1,16
BRDA:55,4294967295,2,0
BRDA:56,0,1,16
BRDA:56,0,2,0
BRDA:57,0,0,16
BRDA:57,0,1,0
BRDA:73,4294967295,0,2
BRDA:73,4294967295,1,0
BRDA:77,0,1,2
BRDA:77,0,2,0
BRDA:78,0,1,2
BRDA:78,0,2,0
BRDA:79,0,1,2
BRDA:79,0,2,0
BRDA:81,0,1,18
BRDA:81,0,2,0
BRDA:81,1,3,16
BRDA:81,1,4,2
BRDA:108,0,0,2
BRDA:108,0,1,0
BRDA:116,0,0,-
BRDA:116,0,1,-
BRDA:121,1,0,-
BRDA:121,1,1,-
BRDA:122,0,1,-
BRDA:122,0,2,-
BRDA:125,3,1,20
BRDA:125,3,2,0
BRDA:125,4,3,20
BRDA:125,4,4,0
BRF:32
BRH:15
DA:28,16
DA:29,16
DA:31,16
DA:34,3
DA:35,3
DA:37,3
DA:41,3
DA:45,3
DA:46,3
DA:48,16
DA:52,16
DA:55,16
DA:56,16
DA:57,16
DA:60,16
DA:61,16
DA:65,2
DA:67,2
DA:70,2
DA:72,2
DA:73,2
DA:76,2
DA:77,2
DA:78,2
DA:79,4
DA:81,18
DA:82,16
DA:83,16
DA:84,16
DA:89,34
DA:91,68
DA:95,0
DA:97,0
DA:100,0
DA:102,0
DA:105,2
DA:108,2
DA:109,2
DA:111,2
DA:113,0
DA:116,0
DA:117,0
DA:118,0
DA:121,0
DA:122,0
DA:124,0
DA:125,80
LF:47
LH:36
end_of_record
TN:
SF:/home/intel/ros2_overlay_ws/src/ros2_openvino_toolkit/dynamic_vino_lib/src/inferences/landmarks_detection.cpp
FN:28,_ZN16dynamic_vino_lib24LandmarksDetectionResultC2ERKN2cv5Rect_IiEE
FN:60,_ZN16dynamic_vino_lib18LandmarksDetection13submitRequestEv
FN:90,_ZNK16dynamic_vino_lib18LandmarksDetection16getResultsLengthEv
FN:96,_ZNK16dynamic_vino_lib18LandmarksDetection17getLocationResultEi
FN:106,_ZN16dynamic_vino_lib18LandmarksDetection13observeOutputERKSt10shared_ptrIN7Outputs10BaseOutputEE
FN:114,_ZNK16dynamic_vino_lib18LandmarksDetection15getFilteredROIsENSt7__cxx1112basic_stringIcSt11char_traitsIcESaIcEEE
FN:126,_GLOBAL__sub_I_landmarks_detection.cpp
FN:126,_Z41__static_initialization_and_destruction_0ii
FNDA:0,_ZNK16dynamic_vino_lib18LandmarksDetection16getResultsLengthEv
FNDA:0,_ZN16dynamic_vino_lib18LandmarksDetectionC2Ev
FNDA:0,_ZNK16dynamic_vino_lib18LandmarksDetection17getLocationResultEi
FNDA:0,_ZN16dynamic_vino_lib18LandmarksDetection7enqueueERKN2cv3MatERKNS1_5Rect_IiEE
FNDA:0,_ZN16dynamic_vino_lib18LandmarksDetection11loadNetworkESt10shared_ptrIN6Models23LandmarksDetectionModelEE
FNDA:0,_ZN16dynamic_vino_lib18LandmarksDetection12fetchResultsEv
FNDA:0,_ZN16dynamic_vino_lib24LandmarksDetectionResultC2ERKN2cv5Rect_IiEE
FNDA:0,_ZNK16dynamic_vino_lib18LandmarksDetection15getFilteredROIsENSt7__cxx1112basic_stringIcSt11char_traitsIcESaIcEEE
FNDA:20,_GLOBAL__sub_I_landmarks_detection.cpp
FNDA:0,_ZN16dynamic_vino_lib18LandmarksDetection13observeOutputERKSt10shared_ptrIN7Outputs10BaseOutputEE
FNDA:0,_ZNK16dynamic_vino_lib18LandmarksDetection7getNameB5cxx11Ev
FNDA:0,_ZN16dynamic_vino_lib18LandmarksDetection13submitRequestEv
FNDA:20,_Z41__static_initialization_and_destruction_0ii
FNF:13
FNH:2
BRDA:47,0,0,-
BRDA:47,0,1,-
BRDA:50,4294967295,1,-
BRDA:50,4294967295,2,-
BRDA:50,0,3,-
BRDA:50,0,4,-
BRDA:56,4294967295,1,-
BRDA:56,4294967295,2,-
BRDA:68,4294967295,0,-
BRDA:68,4294967295,1,-
BRDA:72,0,1,-
BRDA:72,0,2,-
BRDA:73,0,1,-
BRDA:73,0,2,-
BRDA:74,0,1,-
BRDA:74,0,2,-
BRDA:74,1,3,-
BRDA:74,1,4,-
BRDA:76,0,1,-
BRDA:76,0,2,-
BRDA:77,0,0,-
BRDA:77,0,1,-
BRDA:82,0,1,-
BRDA:82,0,2,-
BRDA:86,0,0,-
BRDA:86,0,1,-
BRDA:109,0,0,-
BRDA:109,0,1,-
BRDA:117,0,0,-
BRDA:117,0,1,-
BRDA:122,1,0,-
BRDA:122,1,1,-
BRDA:123,0,1,-
BRDA:123,0,2,-
BRDA:126,3,1,20
BRDA:126,3,2,0
BRDA:126,4,3,20
BRDA:126,4,4,0
BRF:38
BRH:2
DA:28,0
DA:29,0
DA:30,0
DA:33,0
DA:34,0
DA:37,0
DA:41,0
DA:42,0
DA:44,0
DA:47,0
DA:48,0
DA:50,0
DA:51,0
DA:55,0
DA:56,0
DA:60,0
DA:62,0
DA:65,0
DA:67,0
DA:68,0
DA:70,0
DA:72,0
DA:73,0
DA:74,0
DA:76,0
DA:77,0
DA:78,0
DA:79,0
DA:80,0
DA:81,0
DA:82,0
DA:86,0
DA:90,0
DA:92,0
DA:96,0
DA:98,0
DA:101,0
DA:103,0
DA:106,0
DA:109,0
DA:110,0
DA:112,0
DA:114,0
DA:117,0
DA:118,0
DA:119,0
DA:122,0
DA:123,0
DA:125,0
DA:126,80
LF:50
LH:1
end_of_record
TN:
SF:/home/intel/ros2_overlay_ws/src/ros2_openvino_toolkit/dynamic_vino_lib/src/inferences/license_plate_detection.cpp
FN:28,_ZN16dynamic_vino_lib27LicensePlateDetectionResultC2ERKN2cv5Rect_IiEE
FN:73,_ZN16dynamic_vino_lib21LicensePlateDetection13submitRequestEv
FN:102,_ZNK16dynamic_vino_lib21LicensePlateDetection16getResultsLengthEv
FN:108,_ZNK16dynamic_vino_lib21LicensePlateDetection17getLocationResultEi
FN:118,_ZN16dynamic_vino_lib21LicensePlateDetection13observeOutputERKSt10shared_ptrIN7Outputs10BaseOutputEE
FN:126,_ZNK16dynamic_vino_lib21LicensePlateDetection15getFilteredROIsENSt7__cxx1112basic_stringIcSt11char_traitsIcESaIcEEE
FN:138,_Z41__static_initialization_and_destruction_0ii
FN:138,_GLOBAL__sub_I_license_plate_detection.cpp
FNDA:20,_Z41__static_initialization_and_destruction_0ii
FNDA:0,_ZN16dynamic_vino_lib21LicensePlateDetection11loadNetworkESt10shared_ptrIN6Models26LicensePlateDetectionModelEE
FNDA:0,_ZN16dynamic_vino_lib27LicensePlateDetectionResultC2ERKN2cv5Rect_IiEE
FNDA:20,_GLOBAL__sub_I_license_plate_detection.cpp
FNDA:0,_ZN16dynamic_vino_lib21LicensePlateDetection13submitRequestEv
FNDA:0,_ZN16dynamic_vino_lib21LicensePlateDetectionC2Ev
FNDA:0,_ZN16dynamic_vino_lib21LicensePlateDetection7enqueueERKN2cv3MatERKNS1_5Rect_IiEE
FNDA:0,_ZN16dynamic_vino_lib21LicensePlateDetection13observeOutputERKSt10shared_ptrIN7Outputs10BaseOutputEE
FNDA:0,_ZN16dynamic_vino_lib21LicensePlateDetection11fillSeqBlobEv
FNDA:0,_ZNK16dynamic_vino_lib21LicensePlateDetection15getFilteredROIsENSt7__cxx1112basic_stringIcSt11char_traitsIcESaIcEEE
FNDA:0,_ZNK16dynamic_vino_lib21LicensePlateDetection7getNameB5cxx11Ev
FNDA:0,_ZNK16dynamic_vino_lib21LicensePlateDetection17getLocationResultEi
FNDA:0,_ZNK16dynamic_vino_lib21LicensePlateDetection16getResultsLengthEv
FNDA:0,_ZN16dynamic_vino_lib21LicensePlateDetection12fetchResultsEv
FNF:14
FNH:2
BRDA:34,0,2,-
BRDA:34,0,3,-
BRDA:34,1,5,-
BRDA:34,1,6,-
BRDA:34,2,8,-
BRDA:34,2,9,-
BRDA:34,3,11,-
BRDA:34,3,12,-
BRDA:34,4,14,-
BRDA:34,4,15,-
BRDA:34,5,17,-
BRDA:34,5,18,-
BRDA:34,6,20,-
BRDA:34,6,21,-
BRDA:34,7,23,-
BRDA:34,7,24,-
BRDA:34,8,26,-
BRDA:34,8,27,-
BRDA:34,9,29,-
BRDA:34,9,30,-
BRDA:34,10,32,-
BRDA:34,10,33,-
BRDA:34,11,35,-
BRDA:34,11,36,-
BRDA:34,12,38,-
BRDA:34,12,39,-
BRDA:34,13,41,-
BRDA:34,13,42,-
BRDA:34,14,44,-
BRDA:34,14,45,-
BRDA:34,15,47,-
BRDA:34,15,48,-
BRDA:34,16,50,-
BRDA:34,16,51,-
BRDA:34,17,53,-
BRDA:34,17,54,-
BRDA:34,18,56,-
BRDA:34,18,57,-
BRDA:34,19,59,-
BRDA:34,19,60,-
BRDA:34,20,62,-
BRDA:34,20,63,-
BRDA:34,21,65,-
BRDA:34,21,66,-
BRDA:34,22,68,-
BRDA:34,22,69,-
BRDA:34,23,71,-
BRDA:34,23,72,-
BRDA:34,24,74,-
BRDA:34,24,75,-
BRDA:34,25,77,-
BRDA:34,25,78,-
BRDA:34,26,80,-
BRDA:34,26,81,-
BRDA:34,27,83,-
BRDA:34,27,84,-
BRDA:34,28,86,-
BRDA:34,28,87,-
BRDA:34,29,89,-
BRDA:34,29,90,-
BRDA:34,30,92,-
BRDA:34,30,93,-
BRDA:34,31,95,-
BRDA:34,31,96,-
BRDA:34,32,98,-
BRDA:34,32,99,-
BRDA:34,33,101,-
BRDA:34,33,102,-
BRDA:34,34,104,-
BRDA:34,34,105,-
BRDA:34,35,107,-
BRDA:34,35,108,-
BRDA:34,36,110,-
BRDA:34,36,111,-
BRDA:34,37,113,-
BRDA:34,37,114,-
BRDA:34,38,116,-
BRDA:34,38,117,-
BRDA:34,39,119,-
BRDA:34,39,120,-
BRDA:34,40,122,-
BRDA:34,40,123,-
BRDA:34,41,125,-
BRDA:34,41,126,-
BRDA:34,42,128,-
BRDA:34,42,129,-
BRDA:34,43,131,-
BRDA:34,43,132,-
BRDA:34,44,134,-
BRDA:34,44,135,-
BRDA:34,45,137,-
BRDA:34,45,138,-
BRDA:34,46,140,-
BRDA:34,46,141,-
BRDA:34,47,143,-
BRDA:34,47,144,-
BRDA:34,48,146,-
BRDA:34,48,147,-
BRDA:34,49,149,-
BRDA:34,49,150,-
BRDA:34,50,152,-
BRDA:34,50,153,-
BRDA:34,51,155,-
BRDA:34,51,156,-
BRDA:34,52,158,-
BRDA:34,52,159,-
BRDA:34,53,161,-
BRDA:34,53,162,-
BRDA:34,54,164,-
BRDA:34,54,165,-
BRDA:34,55,167,-
BRDA:34,55,168,-
BRDA:34,56,170,-
BRDA:34,56,171,-
BRDA:34,57,173,-
BRDA:34,57,174,-
BRDA:34,58,176,-
BRDA:34,58,177,-
BRDA:34,59,179,-
BRDA:34,59,180,-
BRDA:34,60,182,-
BRDA:34,60,183,-
BRDA:34,61,185,-
BRDA:34,61,186,-
BRDA:34,62,188,-
BRDA:34,62,189,-
BRDA:34,63,191,-
BRDA:34,63,192,-
BRDA:34,64,194,-
BRDA:34,64,195,-
BRDA:34,65,197,-
BRDA:34,65,198,-
BRDA:34,66,200,-
BRDA:34,66,201,-
BRDA:34,67,203,-
BRDA:34,67,204,-
BRDA:34,68,206,-
BRDA:34,68,207,-
BRDA:34,69,209,-
BRDA:34,69,210,-
BRDA:34,70,212,-
BRDA:34,70,213,-
BRDA:34,73,214,-
BRDA:34,73,215,-
BRDA:34,74,216,-
BRDA:34,74,217,-
BRDA:47,0,1,-
BRDA:47,0,2,-
BRDA:59,0,0,-
BRDA:59,0,1,-
BRDA:62,4294967295,1,-
BRDA:62,4294967295,2,-
BRDA:62,0,3,-
BRDA:62,0,4,-
BRDA:69,4294967295,1,-
BRDA:69,4294967295,2,-
BRDA:81,4294967295,0,-
BRDA:81,4294967295,1,-
BRDA:85,0,1,-
BRDA:85,0,2,-
BRDA:86,0,1,-
BRDA:86,0,2,-
BRDA:86,1,3,-
BRDA:86,1,4,-
BRDA:87,0,1,-
BRDA:87,0,2,-
BRDA:89,0,0,-
BRDA:89,0,1,-
BRDA:90,0,0,-
BRDA:90,0,1,-
BRDA:98,0,0,-
BRDA:98,0,1,-
BRDA:121,0,0,-
BRDA:121,0,1,-
BRDA:129,0,0,-
BRDA:129,0,1,-
BRDA:134,1,0,-
BRDA:134,1,1,-
BRDA:134,2,3,-
BRDA:134,2,4,-
BRDA:135,0,1,-
BRDA:135,0,2,-
BRDA:138,3,1,20
BRDA:138,3,2,0
BRDA:138,4,3,20
BRDA:138,4,4,0
BRF:186
BRH:2
DA:28,0
DA:29,0
DA:30,0
DA:33,0
DA:34,0
DA:37,0
DA:41,0
DA:42,0
DA:44,0
DA:46,0
DA:47,0
DA:48,0
DA:51,0
DA:52,0
DA:53,0
DA:54,0
DA:56,0
DA:59,0
DA:60,0
DA:62,0
DA:63,0
DA:67,0
DA:68,0
DA:69,0
DA:73,0
DA:75,0
DA:78,0
DA:80,0
DA:81,0
DA:83,0
DA:85,0
DA:86,0
DA:87,0
DA:88,0
DA:89,0
DA:90,0
DA:93,0
DA:95,0
DA:98,0
DA:102,0
DA:104,0
DA:108,0
DA:110,0
DA:113,0
DA:115,0
DA:118,0
DA:121,0
DA:122,0
DA:124,0
DA:126,0
DA:129,0
DA:130,0
DA:131,0
DA:134,0
DA:135,0
DA:137,0
DA:138,80
LF:57
LH:1
end_of_record
TN:
SF:/home/intel/ros2_overlay_ws/src/ros2_openvino_toolkit/dynamic_vino_lib/src/inferences/object_detection.cpp
FN:30,_ZN16dynamic_vino_lib21ObjectDetectionResultC2ERKN2cv5Rect_IiEE
FN:94,_ZNK16dynamic_vino_lib15ObjectDetection16getResultsLengthEv
FN:100,_ZNK16dynamic_vino_lib15ObjectDetection17getLocationResultEi
FN:110,_ZN16dynamic_vino_lib15ObjectDetection13observeOutputERKSt10shared_ptrIN7Outputs10BaseOutputEE
FN:135,_ZN16dynamic_vino_lib27ObjectDetectionResultFilterC2Ev
FN:137,_ZN16dynamic_vino_lib27ObjectDetectionResultFilter4initEv
FN:143,_ZN16dynamic_vino_lib27ObjectDetectionResultFilter13acceptResultsERKSt6vectorINS_21ObjectDetectionResultESaIS2_EE
FN:150,_ZN16dynamic_vino_lib27ObjectDetectionResultFilter20getFilteredLocationsEv
FN:161,_ZN16dynamic_vino_lib27ObjectDetectionResultFilter12isValidLabelERKNS_21ObjectDetectionResultERKNSt7__cxx1112basic_stringIcSt11char_traitsIcESaIcEEESB_
FN:167,_ZN16dynamic_vino_lib27ObjectDetectionResultFilter17isValidConfidenceERKNS_21ObjectDetectionResultERKNSt7__cxx1112basic_stringIcSt11char_traitsIcESaIcEEESB_
FN:173,_ZN16dynamic_vino_lib27ObjectDetectionResultFilter13isValidResultERKNS_21ObjectDetectionResultE
FN:179,_ZN16dynamic_vino_lib15ObjectDetection21IntersectionOverUnionERKN2cv5Rect_IiEES5_
FN:207,_Z41__static_initialization_and_destruction_0ii
FN:207,_GLOBAL__sub_I_object_detection.cpp
FNDA:0,_ZNK16dynamic_vino_lib15ObjectDetection16getResultsLengthEv
FNDA:5,_ZN16dynamic_vino_lib15ObjectDetection11loadNetworkESt10shared_ptrIN6Models20ObjectDetectionModelEE
FNDA:0,_ZN16dynamic_vino_lib27ObjectDetectionResultFilter17isValidConfidenceERKNS_21ObjectDetectionResultERKNSt7__cxx1112basic_stringIcSt11char_traitsIcESaIcEEESB_
FNDA:8,_ZN16dynamic_vino_lib27ObjectDetectionResultFilter4initEv
FNDA:6,_ZNK16dynamic_vino_lib15ObjectDetection15getFilteredROIsENSt7__cxx1112basic_stringIcSt11char_traitsIcESaIcEEE
FNDA:20,_GLOBAL__sub_I_object_detection.cpp
FNDA:8,_ZN16dynamic_vino_lib27ObjectDetectionResultFilterC2Ev
FNDA:0,_ZN16dynamic_vino_lib27ObjectDetectionResultFilter13isValidResultERKNS_21ObjectDetectionResultE
FNDA:0,_ZN16dynamic_vino_lib27ObjectDetectionResultFilter12isValidLabelERKNS_21ObjectDetectionResultERKNSt7__cxx1112basic_stringIcSt11char_traitsIcESaIcEEESB_
FNDA:406,_ZN16dynamic_vino_lib21ObjectDetectionResultC2ERKN2cv5Rect_IiEE
FNDA:20,_Z41__static_initialization_and_destruction_0ii
FNDA:0,_ZNK16dynamic_vino_lib15ObjectDetection7getNameB5cxx11Ev
FNDA:4,_ZN16dynamic_vino_lib15ObjectDetection12fetchResultsEv
FNDA:4,_ZN16dynamic_vino_lib15ObjectDetection7enqueueERKN2cv3MatERKNS1_5Rect_IiEE
FNDA:0,_ZN16dynamic_vino_lib27ObjectDetectionResultFilter13acceptResultsERKSt6vectorINS_21ObjectDetectionResultESaIS2_EE
FNDA:0,_ZNK16dynamic_vino_lib15ObjectDetection17getLocationResultEi
FNDA:8,_ZN16dynamic_vino_lib15ObjectDetectionC2Ebd
FNDA:0,_ZN16dynamic_vino_lib27ObjectDetectionResultFilter20getFilteredLocationsEv
FNDA:0,_ZN16dynamic_vino_lib15ObjectDetection21IntersectionOverUnionERKN2cv5Rect_IiEES5_
FNDA:4,_ZN16dynamic_vino_lib15ObjectDetection13observeOutputERKSt10shared_ptrIN7Outputs10BaseOutputEE
FNF:20
FNH:11
BRDA:43,0,1,8
BRDA:43,0,2,0
BRDA:59,0,0,4
BRDA:59,0,1,0
BRDA:59,0,2,0
BRDA:59,0,3,4
BRDA:59,1,4,-
BRDA:59,1,5,-
BRDA:59,2,6,4
BRDA:59,2,7,0
BRDA:63,0,0,0
BRDA:63,0,1,4
BRDA:64,0,3,-
BRDA:64,0,4,-
BRDA:64,1,6,-
BRDA:64,1,7,-
BRDA:65,0,1,-
BRDA:65,0,2,-
BRDA:65,1,4,-
BRDA:65,1,5,-
BRDA:69,4294967295,1,4
BRDA:69,4294967295,2,0
BRDA:69,0,3,4
BRDA:69,0,4,0
BRDA:84,4294967295,0,4
BRDA:84,4294967295,1,0
BRDA:90,4294967295,0,4
BRDA:90,4294967295,1,0
BRDA:90,4294967295,3,4
BRDA:90,4294967295,4,0
BRDA:90,0,5,0
BRDA:90,0,6,4
BRDA:91,0,0,-
BRDA:91,0,1,-
BRDA:113,0,0,4
BRDA:113,0,1,0
BRDA:121,0,1,6
BRDA:121,0,2,0
BRDA:123,1,0,48
BRDA:123,1,1,6
BRDA:123,2,3,48
BRDA:123,2,4,0
BRDA:124,0,1,48
BRDA:124,0,2,0
BRDA:153,0,0,-
BRDA:153,0,1,-
BRDA:153,1,3,-
BRDA:153,1,4,-
BRDA:154,0,1,-
BRDA:154,0,2,-
BRDA:154,1,3,-
BRDA:154,1,4,-
BRDA:155,0,1,-
BRDA:155,0,2,-
BRDA:164,4294967295,1,-
BRDA:164,4294967295,2,-
BRDA:176,1,2,-
BRDA:176,1,3,-
BRDA:176,2,5,-
BRDA:176,2,6,-
BRDA:176,3,7,-
BRDA:176,3,8,-
BRDA:176,4,10,-
BRDA:176,4,11,-
BRDA:176,5,12,-
BRDA:176,5,13,-
BRDA:176,6,15,-
BRDA:176,6,16,-
BRDA:176,7,18,-
BRDA:176,7,19,-
BRDA:176,8,21,-
BRDA:176,8,22,-
BRDA:176,9,24,-
BRDA:176,9,25,-
BRDA:176,11,27,-
BRDA:176,11,28,-
BRDA:176,13,29,-
BRDA:176,13,30,-
BRDA:176,14,32,-
BRDA:176,14,33,-
BRDA:176,14,37,-
BRDA:176,14,38,-
BRDA:176,14,40,-
BRDA:176,14,41,-
BRDA:196,0,0,-
BRDA:196,0,1,-
BRDA:196,1,2,-
BRDA:196,1,3,-
BRDA:207,3,1,20
BRDA:207,3,2,0
BRDA:207,4,3,20
BRDA:207,4,4,0
BRF:92
BRH:19
DA:30,406
DA:31,406
DA:33,406
DA:36,8
DA:38,8
DA:40,8
DA:42,8
DA:43,8
DA:44,8
DA:48,5
DA:53,5
DA:54,5
DA:55,4
DA:59,12
DA:63,4
DA:64,0
DA:65,0
DA:66,0
DA:69,8
DA:77,4
DA:78,4
DA:81,4
DA:83,4
DA:84,4
DA:88,4
DA:90,8
DA:91,4
DA:94,0
DA:96,0
DA:100,0
DA:102,0
DA:105,0
DA:107,0
DA:110,4
DA:113,4
DA:114,4
DA:116,4
DA:118,6
DA:121,6
DA:123,54
DA:124,48
DA:128,0
DA:129,0
DA:130,6
DA:135,16
DA:137,8
DA:139,16
DA:140,16
DA:141,8
DA:143,0
DA:146,0
DA:147,0
DA:150,0
DA:153,0
DA:154,0
DA:155,0
DA:158,0
DA:161,0
DA:164,0
DA:167,0
DA:170,0
DA:173,0
DA:176,0
DA:179,0
DA:183,0
DA:185,0
DA:188,0
DA:190,0
DA:193,0
DA:194,0
DA:196,0
DA:199,0
DA:202,0
DA:203,0
DA:204,0
DA:206,0
DA:207,80
LF:77
LH:39
end_of_record
TN:
SF:/home/intel/ros2_overlay_ws/src/ros2_openvino_toolkit/dynamic_vino_lib/src/inferences/object_segmentation.cpp
FN:30,_ZN16dynamic_vino_lib24ObjectSegmentationResultC2ERKN2cv5Rect_IiEE
FN:69,_ZN16dynamic_vino_lib18ObjectSegmentation13submitRequestEv
FN:132,_ZNK16dynamic_vino_lib18ObjectSegmentation16getResultsLengthEv
FN:138,_ZNK16dynamic_vino_lib18ObjectSegmentation17getLocationResultEi
FN:148,_ZN16dynamic_vino_lib18ObjectSegmentation13observeOutputERKSt10shared_ptrIN7Outputs10BaseOutputEE
FN:156,_ZNK16dynamic_vino_lib18ObjectSegmentation15getFilteredROIsENSt7__cxx1112basic_stringIcSt11char_traitsIcESaIcEEE
FN:168,_Z41__static_initialization_and_destruction_0ii
FN:168,_GLOBAL__sub_I_object_segmentation.cpp
FNDA:0,_ZN16dynamic_vino_lib18ObjectSegmentationC2Ed
FNDA:0,_ZN16dynamic_vino_lib18ObjectSegmentation13observeOutputERKSt10shared_ptrIN7Outputs10BaseOutputEE
FNDA:0,_ZNK16dynamic_vino_lib18ObjectSegmentation16getResultsLengthEv
FNDA:20,_Z41__static_initialization_and_destruction_0ii
FNDA:0,_ZN16dynamic_vino_lib18ObjectSegmentation11loadNetworkESt10shared_ptrIN6Models23ObjectSegmentationModelEE
FNDA:20,_GLOBAL__sub_I_object_segmentation.cpp
FNDA:0,_ZNK16dynamic_vino_lib18ObjectSegmentation15getFilteredROIsENSt7__cxx1112basic_stringIcSt11char_traitsIcESaIcEEE
FNDA:0,_ZNK16dynamic_vino_lib18ObjectSegmentation17getLocationResultEi
FNDA:0,_ZNK16dynamic_vino_lib18ObjectSegmentation7getNameB5cxx11Ev
FNDA:0,_ZN16dynamic_vino_lib24ObjectSegmentationResultC2ERKN2cv5Rect_IiEE
FNDA:0,_ZN16dynamic_vino_lib18ObjectSegmentation12fetchResultsEv
FNDA:0,_ZN16dynamic_vino_lib18ObjectSegmentation7enqueueERKN2cv3MatERKNS1_5Rect_IiEE
FNDA:0,_ZN16dynamic_vino_lib18ObjectSegmentation13submitRequestEv
FNF:13
FNH:2
BRDA:54,0,0,-
BRDA:54,0,1,-
BRDA:58,4294967295,1,-
BRDA:58,4294967295,2,-
BRDA:58,0,3,-
BRDA:58,0,4,-
BRDA:65,0,1,-
BRDA:65,0,2,-
BRDA:77,4294967295,0,-
BRDA:77,4294967295,1,-
BRDA:85,0,1,-
BRDA:85,0,2,-
BRDA:85,1,4,-
BRDA:85,1,5,-
BRDA:87,0,1,-
BRDA:87,0,2,-
BRDA:87,1,4,-
BRDA:87,1,5,-
BRDA:96,0,0,-
BRDA:96,0,1,-
BRDA:99,0,0,-
BRDA:99,0,1,-
BRDA:103,0,0,-
BRDA:103,0,1,-
BRDA:112,0,1,-
BRDA:112,0,2,-
BRDA:115,0,1,-
BRDA:115,0,2,-
BRDA:116,0,1,-
BRDA:116,0,2,-
BRDA:119,0,0,-
BRDA:119,0,1,-
BRDA:119,1,3,-
BRDA:119,1,4,-
BRDA:120,0,1,-
BRDA:120,0,2,-
BRDA:120,1,3,-
BRDA:120,1,4,-
BRDA:120,2,5,-
BRDA:120,2,6,-
BRDA:120,2,7,-
BRDA:120,2,8,-
BRDA:120,2,9,-
BRDA:120,2,10,-
BRDA:121,0,1,-
BRDA:121,0,2,-
BRDA:123,0,1,-
BRDA:123,0,2,-
BRDA:126,0,0,-
BRDA:126,0,1,-
BRDA:151,0,0,-
BRDA:151,0,1,-
BRDA:159,0,0,-
BRDA:159,0,1,-
BRDA:164,1,0,-
BRDA:164,1,1,-
BRDA:164,2,3,-
BRDA:164,2,4,-
BRDA:165,0,1,-
BRDA:165,0,2,-
BRDA:168,3,1,20
BRDA:168,3,2,0
BRDA:168,4,3,20
BRDA:168,4,4,0
BRF:64
BRH:2
DA:30,0
DA:31,0
DA:33,0
DA:36,0
DA:37,0
DA:39,0
DA:43,0
DA:47,0
DA:48,0
DA:50,0
DA:54,0
DA:55,0
DA:56,0
DA:58,0
DA:59,0
DA:63,0
DA:64,0
DA:65,0
DA:69,0
DA:71,0
DA:74,0
DA:76,0
DA:77,0
DA:81,0
DA:82,0
DA:85,0
DA:86,0
DA:87,0
DA:88,0
DA:90,0
DA:91,0
DA:92,0
DA:93,0
DA:94,0
DA:95,0
DA:96,0
DA:97,0
DA:98,0
DA:99,0
DA:102,0
DA:103,0
DA:104,0
DA:105,0
DA:106,0
DA:107,0
DA:108,0
DA:109,0
DA:110,0
DA:111,0
DA:112,0
DA:113,0
DA:114,0
DA:115,0
DA:116,0
DA:117,0
DA:119,0
DA:120,0
DA:121,0
DA:123,0
DA:126,0
DA:132,0
DA:134,0
DA:138,0
DA:140,0
DA:143,0
DA:145,0
DA:148,0
DA:151,0
DA:152,0
DA:154,0
DA:156,0
DA:159,0
DA:160,0
DA:161,0
DA:164,0
DA:165,0
DA:167,0
DA:168,80
LF:78
LH:1
end_of_record
TN:
SF:/home/intel/ros2_overlay_ws/src/ros2_openvino_toolkit/dynamic_vino_lib/src/inferences/person_attribs_detection.cpp
FN:28,_ZN16dynamic_vino_lib28PersonAttribsDetectionResultC2ERKN2cv5Rect_IiEE
FN:60,_ZN16dynamic_vino_lib22PersonAttribsDetection13submitRequestEv
FN:88,_ZNK16dynamic_vino_lib22PersonAttribsDetection16getResultsLengthEv
FN:94,_ZNK16dynamic_vino_lib22PersonAttribsDetection17getLocationResultEi
FN:104,_ZN16dynamic_vino_lib22PersonAttribsDetection13observeOutputERKSt10shared_ptrIN7Outputs10BaseOutputEE
FN:112,_ZNK16dynamic_vino_lib22PersonAttribsDetection15getFilteredROIsENSt7__cxx1112basic_stringIcSt11char_traitsIcESaIcEEE
FN:124,_Z41__static_initialization_and_destruction_0ii
FN:124,_GLOBAL__sub_I_person_attribs_detection.cpp
FNDA:20,_GLOBAL__sub_I_person_attribs_detection.cpp
FNDA:0,_ZNK16dynamic_vino_lib22PersonAttribsDetection7getNameB5cxx11Ev
FNDA:0,_ZNK16dynamic_vino_lib22PersonAttribsDetection17getLocationResultEi
FNDA:0,_ZN16dynamic_vino_lib22PersonAttribsDetection13submitRequestEv
FNDA:0,_ZN16dynamic_vino_lib22PersonAttribsDetection7enqueueERKN2cv3MatERKNS1_5Rect_IiEE
FNDA:0,_ZNK16dynamic_vino_lib22PersonAttribsDetection15getFilteredROIsENSt7__cxx1112basic_stringIcSt11char_traitsIcESaIcEEE
FNDA:0,_ZN16dynamic_vino_lib28PersonAttribsDetectionResultC2ERKN2cv5Rect_IiEE
FNDA:0,_ZN16dynamic_vino_lib22PersonAttribsDetection12fetchResultsEv
FNDA:0,_ZN16dynamic_vino_lib22PersonAttribsDetection13observeOutputERKSt10shared_ptrIN7Outputs10BaseOutputEE
FNDA:20,_Z41__static_initialization_and_destruction_0ii
FNDA:0,_ZN16dynamic_vino_lib22PersonAttribsDetection11loadNetworkESt10shared_ptrIN6Models27PersonAttribsDetectionModelEE
FNDA:0,_ZN16dynamic_vino_lib22PersonAttribsDetectionC2Ed
FNDA:0,_ZNK16dynamic_vino_lib22PersonAttribsDetection16getResultsLengthEv
FNF:13
FNH:2
BRDA:34,0,2,-
BRDA:34,0,3,-
BRDA:34,1,5,-
BRDA:34,1,6,-
BRDA:34,2,8,-
BRDA:34,2,9,-
BRDA:34,3,11,-
BRDA:34,3,12,-
BRDA:34,4,14,-
BRDA:34,4,15,-
BRDA:34,5,17,-
BRDA:34,5,18,-
BRDA:34,6,20,-
BRDA:34,6,21,-
BRDA:34,9,22,-
BRDA:34,9,23,-
BRDA:34,10,24,-
BRDA:34,10,25,-
BRDA:47,0,0,-
BRDA:47,0,1,-
BRDA:50,4294967295,1,-
BRDA:50,4294967295,2,-
BRDA:50,0,3,-
BRDA:50,0,4,-
BRDA:56,4294967295,1,-
BRDA:56,4294967295,2,-
BRDA:68,4294967295,0,-
BRDA:68,4294967295,1,-
BRDA:72,0,1,-
BRDA:72,0,2,-
BRDA:74,0,1,-
BRDA:74,0,2,-
BRDA:74,1,3,-
BRDA:74,1,4,-
BRDA:76,0,1,-
BRDA:76,0,2,-
BRDA:77,0,0,-
BRDA:77,0,1,-
BRDA:78,0,0,-
BRDA:78,0,1,-
BRDA:78,1,3,-
BRDA:78,1,4,-
BRDA:78,2,6,-
BRDA:78,2,7,-
BRDA:84,0,0,-
BRDA:84,0,1,-
BRDA:107,0,0,-
BRDA:107,0,1,-
BRDA:115,0,0,-
BRDA:115,0,1,-
BRDA:120,1,0,-
BRDA:120,1,1,-
BRDA:120,2,3,-
BRDA:120,2,4,-
BRDA:121,0,1,-
BRDA:121,0,2,-
BRDA:124,3,1,20
BRDA:124,3,2,0
BRDA:124,4,3,20
BRDA:124,4,4,0
BRF:60
BRH:2
DA:28,0
DA:29,0
DA:30,0
DA:33,0
DA:34,0
DA:37,0
DA:41,0
DA:42,0
DA:44,0
DA:47,0
DA:48,0
DA:50,0
DA:51,0
DA:55,0
DA:56,0
DA:60,0
DA:62,0
DA:65,0
DA:67,0
DA:68,0
DA:70,0
DA:72,0
DA:73,0
DA:74,0
DA:75,0
DA:76,0
DA:77,0
DA:78,0
DA:79,0
DA:81,0
DA:84,0
DA:88,0
DA:90,0
DA:94,0
DA:96,0
DA:99,0
DA:101,0
DA:104,0
DA:107,0
DA:108,0
DA:110,0
DA:112,0
DA:115,0
DA:116,0
DA:117,0
DA:120,0
DA:121,0
DA:123,0
DA:124,80
LF:49
LH:1
end_of_record
TN:
SF:/home/intel/ros2_overlay_ws/src/ros2_openvino_toolkit/dynamic_vino_lib/src/inferences/person_reidentification.cpp
FN:28,_ZN16dynamic_vino_lib28PersonReidentificationResultC2ERKN2cv5Rect_IiEE
FN:63,_ZN16dynamic_vino_lib22PersonReidentification13submitRequestEv
FN:88,_ZNK16dynamic_vino_lib22PersonReidentification16getResultsLengthEv
FN:94,_ZNK16dynamic_vino_lib22PersonReidentification17getLocationResultEi
FN:104,_ZN16dynamic_vino_lib22PersonReidentification13observeOutputERKSt10shared_ptrIN7Outputs10BaseOutputEE
FN:112,_ZNK16dynamic_vino_lib22PersonReidentification15getFilteredROIsENSt7__cxx1112basic_stringIcSt11char_traitsIcESaIcEEE
FN:124,_Z41__static_initialization_and_destruction_0ii
FN:124,_GLOBAL__sub_I_person_reidentification.cpp
FNDA:0,_ZN16dynamic_vino_lib22PersonReidentification13submitRequestEv
FNDA:0,_ZN16dynamic_vino_lib22PersonReidentification12fetchResultsEv
FNDA:0,_ZNK16dynamic_vino_lib22PersonReidentification17getLocationResultEi
FNDA:0,_ZNK16dynamic_vino_lib22PersonReidentification7getNameB5cxx11Ev
FNDA:0,_ZN16dynamic_vino_lib22PersonReidentification7enqueueERKN2cv3MatERKNS1_5Rect_IiEE
FNDA:20,_GLOBAL__sub_I_person_reidentification.cpp
FNDA:0,_ZN16dynamic_vino_lib22PersonReidentification11loadNetworkESt10shared_ptrIN6Models27PersonReidentificationModelEE
FNDA:0,_ZNK16dynamic_vino_lib22PersonReidentification16getResultsLengthEv
FNDA:0,_ZNK16dynamic_vino_lib22PersonReidentification15getFilteredROIsENSt7__cxx1112basic_stringIcSt11char_traitsIcESaIcEEE
FNDA:0,_ZN16dynamic_vino_lib28PersonReidentificationResultC2ERKN2cv5Rect_IiEE
FNDA:0,_ZN16dynamic_vino_lib22PersonReidentificationC2Ed
FNDA:0,_ZN16dynamic_vino_lib22PersonReidentification13observeOutputERKSt10shared_ptrIN7Outputs10BaseOutputEE
FNDA:20,_Z41__static_initialization_and_destruction_0ii
FNF:13
FNH:2
BRDA:50,0,0,-
BRDA:50,0,1,-
BRDA:53,4294967295,1,-
BRDA:53,4294967295,2,-
BRDA:53,0,3,-
BRDA:53,0,4,-
BRDA:59,4294967295,1,-
BRDA:59,4294967295,2,-
BRDA:71,4294967295,0,-
BRDA:71,4294967295,1,-
BRDA:75,0,1,-
BRDA:75,0,2,-
BRDA:76,0,1,-
BRDA:76,0,2,-
BRDA:76,1,3,-
BRDA:76,1,4,-
BRDA:78,0,1,-
BRDA:78,0,2,-
BRDA:79,0,1,-
BRDA:79,0,2,-
BRDA:80,0,1,-
BRDA:80,0,2,-
BRDA:84,0,0,-
BRDA:84,0,1,-
BRDA:107,0,0,-
BRDA:107,0,1,-
BRDA:115,0,0,-
BRDA:115,0,1,-
BRDA:120,1,0,-
BRDA:120,1,1,-
BRDA:120,2,3,-
BRDA:120,2,4,-
BRDA:121,0,1,-
BRDA:121,0,2,-
BRDA:124,3,1,20
BRDA:124,3,2,0
BRDA:124,4,3,20
BRDA:124,4,4,0
BRF:38
BRH:2
DA:28,0
DA:29,0
DA:30,0
DA:33,0
DA:34,0
DA:36,0
DA:37,0
DA:40,0
DA:44,0
DA:45,0
DA:47,0
DA:50,0
DA:51,0
DA:53,0
DA:54,0
DA:58,0
DA:59,0
DA:63,0
DA:65,0
DA:68,0
DA:70,0
DA:71,0
DA:73,0
DA:75,0
DA:76,0
DA:78,0
DA:79,0
DA:80,0
DA:81,0
DA:84,0
DA:88,0
DA:90,0
DA:94,0
DA:96,0
DA:99,0
DA:101,0
DA:104,0
DA:107,0
DA:108,0
DA:110,0
DA:112,0
DA:115,0
DA:116,0
DA:117,0
DA:120,0
DA:121,0
DA:123,0
DA:124,80
LF:48
LH:1
end_of_record
TN:
SF:/home/intel/ros2_overlay_ws/src/ros2_openvino_toolkit/dynamic_vino_lib/src/inferences/vehicle_attribs_detection.cpp
FN:28,_ZN16dynamic_vino_lib29VehicleAttribsDetectionResultC2ERKN2cv5Rect_IiEE
FN:60,_ZN16dynamic_vino_lib23VehicleAttribsDetection13submitRequestEv
FN:88,_ZNK16dynamic_vino_lib23VehicleAttribsDetection16getResultsLengthEv
FN:94,_ZNK16dynamic_vino_lib23VehicleAttribsDetection17getLocationResultEi
FN:104,_ZN16dynamic_vino_lib23VehicleAttribsDetection13observeOutputERKSt10shared_ptrIN7Outputs10BaseOutputEE
FN:112,_ZNK16dynamic_vino_lib23VehicleAttribsDetection15getFilteredROIsENSt7__cxx1112basic_stringIcSt11char_traitsIcESaIcEEE
FN:124,_Z41__static_initialization_and_destruction_0ii
FN:124,_GLOBAL__sub_I_vehicle_attribs_detection.cpp
FNDA:0,_ZN16dynamic_vino_lib23VehicleAttribsDetection11loadNetworkESt10shared_ptrIN6Models28VehicleAttribsDetectionModelEE
FNDA:0,_ZNK16dynamic_vino_lib23VehicleAttribsDetection15getFilteredROIsENSt7__cxx1112basic_stringIcSt11char_traitsIcESaIcEEE
FNDA:0,_ZN16dynamic_vino_lib23VehicleAttribsDetection13submitRequestEv
FNDA:0,_ZN16dynamic_vino_lib23VehicleAttribsDetectionC2Ev
FNDA:20,_Z41__static_initialization_and_destruction_0ii
FNDA:0,_ZN16dynamic_vino_lib29VehicleAttribsDetectionResultC2ERKN2cv5Rect_IiEE
FNDA:0,_ZN16dynamic_vino_lib23VehicleAttribsDetection13observeOutputERKSt10shared_ptrIN7Outputs10BaseOutputEE
FNDA:0,_ZNK16dynamic_vino_lib23VehicleAttribsDetection16getResultsLengthEv
FNDA:0,_ZN16dynamic_vino_lib23VehicleAttribsDetection7enqueueERKN2cv3MatERKNS1_5Rect_IiEE
FNDA:0,_ZN16dynamic_vino_lib23VehicleAttribsDetection12fetchResultsEv
FNDA:0,_ZNK16dynamic_vino_lib23VehicleAttribsDetection7getNameB5cxx11Ev
FNDA:0,_ZNK16dynamic_vino_lib23VehicleAttribsDetection17getLocationResultEi
FNDA:20,_GLOBAL__sub_I_vehicle_attribs_detection.cpp
FNF:13
FNH:2
BRDA:30,0,3,-
BRDA:30,0,4,-
BRDA:34,0,2,-
BRDA:34,0,3,-
BRDA:34,1,5,-
BRDA:34,1,6,-
BRDA:34,2,8,-
BRDA:34,2,9,-
BRDA:34,3,11,-
BRDA:34,3,12,-
BRDA:34,4,14,-
BRDA:34,4,15,-
BRDA:34,7,16,-
BRDA:34,7,17,-
BRDA:34,8,19,-
BRDA:34,8,20,-
BRDA:34,9,22,-
BRDA:34,9,23,-
BRDA:34,10,25,-
BRDA:34,10,26,-
BRDA:34,11,28,-
BRDA:34,11,29,-
BRDA:34,12,31,-
BRDA:34,12,32,-
BRDA:34,13,34,-
BRDA:34,13,35,-
BRDA:34,14,37,-
BRDA:34,14,38,-
BRDA:34,15,40,-
BRDA:34,15,41,-
BRDA:34,18,42,-
BRDA:34,18,43,-
BRDA:34,19,44,-
BRDA:34,19,45,-
BRDA:34,19,46,-
BRDA:34,19,47,-
BRDA:47,0,0,-
BRDA:47,0,1,-
BRDA:50,4294967295,1,-
BRDA:50,4294967295,2,-
BRDA:50,0,3,-
BRDA:50,0,4,-
BRDA:56,4294967295,1,-
BRDA:56,4294967295,2,-
BRDA:68,4294967295,0,-
BRDA:68,4294967295,1,-
BRDA:73,0,1,-
BRDA:73,0,2,-
BRDA:74,0,1,-
BRDA:74,0,2,-
BRDA:75,0,1,-
BRDA:75,0,2,-
BRDA:75,1,3,-
BRDA:75,1,4,-
BRDA:84,0,0,-
BRDA:84,0,1,-
BRDA:107,0,0,-
BRDA:107,0,1,-
BRDA:115,0,0,-
BRDA:115,0,1,-
BRDA:120,1,0,-
BRDA:120,1,1,-
BRDA:120,2,3,-
BRDA:120,2,4,-
BRDA:121,0,1,-
BRDA:121,0,2,-
BRDA:124,3,1,20
BRDA:124,3,2,0
BRDA:124,4,3,20
BRDA:124,4,4,0
BRF:70
BRH:2
DA:28,0
DA:29,0
DA:30,0
DA:33,0
DA:34,0
DA:37,0
DA:41,0
DA:42,0
DA:44,0
DA:47,0
DA:50,0
DA:51,0
DA:55,0
DA:56,0
DA:60,0
DA:62,0
DA:65,0
DA:67,0
DA:68,0
DA:70,0
DA:73,0
DA:74,0
DA:75,0
DA:76,0
DA:77,0
DA:80,0
DA:81,0
DA:84,0
DA:88,0
DA:90,0
DA:94,0
DA:96,0
DA:99,0
DA:101,0
DA:104,0
DA:107,0
DA:108,0
DA:110,0
DA:112,0
DA:115,0
DA:116,0
DA:117,0
DA:120,0
DA:121,0
DA:123,0
DA:124,80
LF:46
LH:1
end_of_record
TN:
SF:/home/intel/ros2_overlay_ws/src/ros2_openvino_toolkit/dynamic_vino_lib/src/inputs/image_input.cpp
FN:24,_ZN5Input5ImageC2ERKNSt7__cxx1112basic_stringIcSt11char_traitsIcESaIcEEE
FN:29,_ZN5Input5Image10initializeEv
FN:42,_ZN5Input5Image4readEPN2cv3MatE
FN:52,_ZN5Input5Image6configERKNS_6ConfigE
FN:60,_GLOBAL__sub_I_image_input.cpp
FNDA:20,_Z41__static_initialization_and_destruction_0ii
FNDA:4,_ZN5Input5Image6configERKNS_6ConfigE
FNDA:4,_ZN5Input5ImageC2ERKNSt7__cxx1112basic_stringIcSt11char_traitsIcESaIcEEE
FNDA:20,_GLOBAL__sub_I_image_input.cpp
FNDA:8,_ZN5Input5Image10initializeEv
FNDA:4,_ZN5Input5Image4readEPN2cv3MatE
FNF:6
FNH:6
BRDA:31,0,2,8
BRDA:31,0,3,0
BRDA:32,4294967295,0,6
BRDA:32,4294967295,1,2
BRDA:44,0,0,4
BRDA:44,0,1,0
BRDA:48,4294967295,1,4
BRDA:48,4294967295,2,0
BRDA:48,0,4,4
BRDA:48,0,5,0
BRDA:54,4294967295,0,4
BRDA:54,4294967295,1,0
BRDA:60,3,1,20
BRDA:60,3,2,0
BRDA:60,4,3,20
BRDA:60,4,4,0
BRF:16
BRH:9
DA:24,8
DA:27,4
DA:29,8
DA:31,8
DA:32,8
DA:34,6
DA:35,6
DA:39,8
DA:42,4
DA:44,4
DA:47,4
DA:48,4
DA:49,4
DA:52,4
DA:54,4
DA:55,4
DA:56,4
DA:57,4
DA:58,8
DA:60,80
LF:20
LH:20
end_of_record
TN:
SF:/home/intel/ros2_overlay_ws/src/ros2_openvino_toolkit/dynamic_vino_lib/src/inputs/ip_camera.cpp
FN:22,_ZN5Input8IpCamera10initializeEv
FN:31,_ZN5Input8IpCamera10initializeEmm
FN:41,_ZN5Input8IpCamera4readEPN2cv3MatE
FN:53,_GLOBAL__sub_I_ip_camera.cpp
FNDA:20,_GLOBAL__sub_I_ip_camera.cpp
FNDA:0,_ZN5Input8IpCamera4readEPN2cv3MatE
FNDA:0,_ZN5Input8IpCamera10initializeEmm
FNDA:20,_Z41__static_initialization_and_destruction_0ii
FNDA:0,_ZN5Input8IpCamera10initializeEv
FNF:5
FNH:2
BRDA:34,4294967295,0,-
BRDA:34,4294967295,1,-
BRDA:43,0,0,-
BRDA:43,0,1,-
BRDA:47,4294967295,1,-
BRDA:47,4294967295,2,-
BRDA:47,0,4,-
BRDA:47,0,5,-
BRDA:49,4294967295,0,-
BRDA:49,4294967295,1,-
BRDA:53,3,1,20
BRDA:53,3,2,0
BRDA:53,4,3,20
BRDA:53,4,4,0
BRF:14
BRH:2
DA:22,0
DA:24,0
DA:28,0
DA:31,0
DA:33,0
DA:34,0
DA:38,0
DA:41,0
DA:43,0
DA:46,0
DA:47,0
DA:48,0
DA:49,0
DA:50,0
DA:53,80
LF:15
LH:1
end_of_record
TN:
SF:/home/intel/ros2_overlay_ws/src/ros2_openvino_toolkit/dynamic_vino_lib/src/inputs/realsense_camera.cpp
FN:24,_ZN5Input15RealSenseCamera10initializeEv
FN:68,_ZN5Input15RealSenseCamera4readEPN2cv3MatE
FN:85,_Z41__static_initialization_and_destruction_0ii
FN:85,_GLOBAL__sub_I_realsense_camera.cpp
FNDA:20,_Z41__static_initialization_and_destruction_0ii
FNDA:6,_ZN5Input15RealSenseCamera10initializeEmm
FNDA:6,_ZN5Input15RealSenseCamera10initializeEv
FNDA:0,_ZN5Input15RealSenseCamera4readEPN2cv3MatE
FNDA:20,_GLOBAL__sub_I_realsense_camera.cpp
FNF:5
FNH:4
BRDA:33,4294967295,1,6
BRDA:33,4294967295,2,0
BRDA:34,0,1,6
BRDA:34,0,2,0
BRDA:35,0,1,6
BRDA:35,0,2,0
BRDA:35,1,4,6
BRDA:35,1,5,0
BRDA:36,0,1,6
BRDA:36,0,2,0
BRDA:37,0,1,6
BRDA:37,0,2,0
BRDA:38,0,1,6
BRDA:38,0,2,0
BRDA:38,1,4,6
BRDA:38,1,5,0
BRDA:39,0,1,6
BRDA:39,0,2,0
BRDA:39,1,4,6
BRDA:39,1,5,0
BRDA:41,0,0,0
BRDA:41,0,1,6
BRDA:42,0,1,-
BRDA:42,0,2,-
BRDA:47,0,1,6
BRDA:47,0,2,0
BRDA:50,0,0,6
BRDA:50,0,1,0
BRDA:53,0,0,6
BRDA:53,0,1,0
BRDA:55,0,0,180
BRDA:55,0,1,6
BRDA:58,0,1,180
BRDA:58,0,2,0
BRDA:59,4294967295,2,-
BRDA:59,4294967295,3,-
BRDA:70,0,0,-
BRDA:70,0,1,-
BRDA:76,4294967295,1,-
BRDA:76,4294967295,2,-
BRDA:77,4294967295,2,-
BRDA:77,4294967295,3,-
BRDA:80,0,1,-
BRDA:80,0,2,-
BRDA:81,0,1,-
BRDA:81,0,2,-
BRDA:82,0,1,-
BRDA:82,0,2,-
BRDA:83,4294967295,1,-
BRDA:83,4294967295,2,-
BRDA:83,0,4,-
BRDA:83,0,5,-
BRDA:85,3,1,20
BRDA:85,3,2,0
BRDA:85,4,3,20
BRDA:85,4,4,0
BRF:56
BRH:19
DA:24,6
DA:26,6
DA:28,6
DA:32,6
DA:33,6
DA:34,6
DA:35,6
DA:36,6
DA:37,6
DA:38,6
DA:39,6
DA:41,6
DA:42,0
DA:45,6
DA:47,6
DA:50,6
DA:53,6
DA:55,186
DA:58,180
DA:59,0
DA:63,6
DA:65,6
DA:66,6
DA:68,0
DA:70,0
DA:73,0
DA:76,0
DA:77,0
DA:80,0
DA:81,0
DA:82,0
DA:83,0
DA:84,0
DA:85,80
LF:34
LH:22
end_of_record
TN:
SF:/home/intel/ros2_overlay_ws/src/ros2_openvino_toolkit/dynamic_vino_lib/src/inputs/realsense_camera_topic.cpp
FN:55,_ZN5Input20RealSenseCameraTopic4readEPN2cv3MatE
FN:65,_GLOBAL__sub_I_realsense_camera_topic.cpp
FN:65,_Z41__static_initialization_and_destruction_0ii
FNDA:0,_ZN5Input20RealSenseCameraTopic10initializeEv
FNDA:0,_ZN5Input20RealSenseCameraTopic4readEPN2cv3MatE
FNDA:0,_ZN5Input20RealSenseCameraTopicC2Ev
FNDA:20,_Z41__static_initialization_and_destruction_0ii
FNDA:0,_ZN5Input20RealSenseCameraTopic2cbESt10shared_ptrIN11sensor_msgs3msg6Image_ISaIvEEEE
FNDA:20,_GLOBAL__sub_I_realsense_camera_topic.cpp
FNF:6
FNH:2
BRDA:28,0,2,-
BRDA:28,0,3,-
BRDA:28,1,5,-
BRDA:28,1,6,-
BRDA:28,2,8,-
BRDA:28,2,9,-
BRDA:28,3,11,-
BRDA:28,3,12,-
BRDA:28,4,15,-
BRDA:28,4,16,-
BRDA:37,4294967295,1,-
BRDA:37,4294967295,2,-
BRDA:37,0,4,-
BRDA:37,0,5,-
BRDA:37,1,7,-
BRDA:37,1,8,-
BRDA:38,0,1,-
BRDA:38,0,2,-
BRDA:38,1,4,-
BRDA:38,1,5,-
BRDA:50,0,1,-
BRDA:50,0,2,-
BRDA:50,0,4,-
BRDA:50,0,5,-
BRDA:50,1,7,-
BRDA:50,1,8,-
BRDA:57,0,0,-
BRDA:57,0,1,-
BRDA:57,1,2,-
BRDA:57,1,3,-
BRDA:65,3,1,20
BRDA:65,3,2,0
BRDA:65,4,3,20
BRDA:65,4,4,0
BRF:34
BRH:2
DA:27,0
DA:28,0
DA:30,0
DA:32,0
DA:34,0
DA:37,0
DA:38,0
DA:40,0
DA:42,0
DA:45,0
DA:48,0
DA:50,0
DA:52,0
DA:53,0
DA:55,0
DA:57,0
DA:62,0
DA:63,0
DA:64,0
DA:65,80
LF:20
LH:1
end_of_record
TN:
SF:/home/intel/ros2_overlay_ws/src/ros2_openvino_toolkit/dynamic_vino_lib/src/inputs/standard_camera.cpp
FN:21,_ZN5Input14StandardCamera10initializeEv
FN:43,_ZN5Input14StandardCamera10initializeEi
FN:51,_ZN5Input14StandardCamera10initializeEmm
FN:65,_ZN5Input14StandardCamera4readEPN2cv3MatE
FN:73,_GLOBAL__sub_I_standard_camera.cpp
FNDA:0,_ZN5Input14StandardCamera10initializeEv
FNDA:20,_Z41__static_initialization_and_destruction_0ii
FNDA:0,_ZN5Input14StandardCamera10initializeEmm
FNDA:0,_ZN5Input14StandardCamera4readEPN2cv3MatE
FNDA:0,_ZN5Input14StandardCamera10initializeEi
FNDA:20,_GLOBAL__sub_I_standard_camera.cpp
FNF:6
FNH:2
BRDA:38,4294967295,0,-
BRDA:38,4294967295,1,-
BRDA:57,4294967295,0,-
BRDA:57,4294967295,1,-
BRDA:67,0,0,-
BRDA:67,0,1,-
BRDA:71,4294967295,1,-
BRDA:71,4294967295,2,-
BRDA:71,0,4,-
BRDA:71,0,5,-
BRDA:73,3,1,20
BRDA:73,3,2,0
BRDA:73,4,3,20
BRDA:73,4,4,0
BRF:14
BRH:2
DA:21,0
DA:30,0
DA:33,0
DA:34,0
DA:38,0
DA:40,0
DA:43,0
DA:45,0
DA:46,0
DA:47,0
DA:48,0
DA:51,0
DA:56,0
DA:57,0
DA:58,0
DA:59,0
DA:61,0
DA:62,0
DA:65,0
DA:67,0
DA:70,0
DA:71,0
DA:72,0
DA:73,80
LF:24
LH:1
end_of_record
TN:
SF:/home/intel/ros2_overlay_ws/src/ros2_openvino_toolkit/dynamic_vino_lib/src/inputs/video_input.cpp
FN:25,_ZN5Input5VideoC2ERKNSt7__cxx1112basic_stringIcSt11char_traitsIcESaIcEEE
FN:30,_ZN5Input5Video10initializeEv
FN:38,_ZN5Input5Video10initializeEmm
FN:50,_ZN5Input5Video4readEPN2cv3MatE
FN:58,_GLOBAL__sub_I_video_input.cpp
FNDA:0,_ZN5Input5Video4readEPN2cv3MatE
FNDA:0,_ZN5Input5Video10initializeEmm
FNDA:0,_ZN5Input5Video10initializeEv
FNDA:20,_GLOBAL__sub_I_video_input.cpp
FNDA:20,_Z41__static_initialization_and_destruction_0ii
FNDA:0,_ZN5Input5VideoC2ERKNSt7__cxx1112basic_stringIcSt11char_traitsIcESaIcEEE
FNF:6
FNH:2
BRDA:25,1,2,-
BRDA:25,1,3,-
BRDA:43,4294967295,0,-
BRDA:43,4294967295,1,-
BRDA:52,0,0,-
BRDA:52,0,1,-
BRDA:56,4294967295,1,-
BRDA:56,4294967295,2,-
BRDA:56,0,4,-
BRDA:56,0,5,-
BRDA:58,3,1,20
BRDA:58,3,2,0
BRDA:58,4,3,20
BRDA:58,4,4,0
BRF:14
BRH:2
DA:25,0
DA:28,0
DA:30,0
DA:32,0
DA:33,0
DA:34,0
DA:35,0
DA:38,0
DA:42,0
DA:43,0
DA:44,0
DA:45,0
DA:47,0
DA:50,0
DA:52,0
DA:55,0
DA:56,0
DA:57,0
DA:58,80
LF:19
LH:1
end_of_record
TN:
SF:/home/intel/ros2_overlay_ws/src/ros2_openvino_toolkit/dynamic_vino_lib/src/models/age_gender_detection_model.cpp
FN:26,_ZN6Models23AgeGenderDetectionModelC2ERKNSt7__cxx1112basic_stringIcSt11char_traitsIcESaIcEEEiii
FN:85,_ZNK6Models23AgeGenderDetectionModel12getModelNameB5cxx11Ev
FN:88,_Z41__static_initialization_and_destruction_0ii
FN:88,_GLOBAL__sub_I_age_gender_detection_model.cpp
FNDA:3,_ZN6Models23AgeGenderDetectionModel16setLayerPropertyESt10shared_ptrIN15InferenceEngine12CNNNetReaderEE
FNDA:3,_ZN6Models23AgeGenderDetectionModel18checkLayerPropertyERKSt10shared_ptrIN15InferenceEngine12CNNNetReaderEE
FNDA:20,_GLOBAL__sub_I_age_gender_detection_model.cpp
FNDA:0,_ZNK6Models23AgeGenderDetectionModel12getModelNameB5cxx11Ev
FNDA:3,_ZN6Models23AgeGenderDetectionModelC2ERKNSt7__cxx1112basic_stringIcSt11char_traitsIcESaIcEEEiii
FNDA:20,_Z41__static_initialization_and_destruction_0ii
FNF:6
FNH:5
BRDA:40,4294967295,1,3
BRDA:40,4294967295,2,0
BRDA:41,0,1,3
BRDA:41,0,2,0
BRDA:43,0,1,3
BRDA:43,0,2,0
BRDA:47,4294967295,1,3
BRDA:47,4294967295,2,0
BRDA:48,0,1,3
BRDA:48,0,2,0
BRDA:49,0,1,3
BRDA:49,0,2,0
BRDA:50,0,1,3
BRDA:50,0,2,0
BRDA:66,4294967295,1,3
BRDA:66,4294967295,2,0
BRDA:66,0,3,0
BRDA:66,0,4,3
BRDA:69,0,1,3
BRDA:69,0,2,0
BRDA:69,1,3,0
BRDA:69,1,4,3
BRDA:71,4294967295,1,-
BRDA:71,4294967295,2,-
BRDA:71,4294967295,4,-
BRDA:71,4294967295,5,-
BRDA:71,0,7,-
BRDA:71,0,8,-
BRDA:72,0,1,-
BRDA:72,0,2,-
BRDA:73,0,2,-
BRDA:73,0,3,-
BRDA:73,1,5,-
BRDA:73,1,6,-
BRDA:75,0,1,3
BRDA:75,0,2,0
BRDA:75,1,3,0
BRDA:75,1,4,3
BRDA:76,4294967295,1,-
BRDA:76,4294967295,2,-
BRDA:77,4294967295,1,-
BRDA:77,4294967295,2,-
BRDA:77,0,4,-
BRDA:77,0,5,-
BRDA:78,0,1,-
BRDA:78,0,2,-
BRDA:79,0,2,-
BRDA:79,0,3,-
BRDA:79,1,5,-
BRDA:79,1,6,-
BRDA:81,0,1,3
BRDA:81,0,2,0
BRDA:81,1,4,3
BRDA:81,1,5,0
BRDA:81,1,7,3
BRDA:81,1,8,0
BRDA:82,0,1,3
BRDA:82,0,2,0
BRDA:82,1,4,3
BRDA:82,1,5,0
BRDA:82,1,7,3
BRDA:82,1,8,0
BRDA:88,3,1,20
BRDA:88,3,2,0
BRDA:88,4,3,20
BRDA:88,4,4,0
BRF:66
BRH:21
DA:26,3
DA:29,3
DA:30,3
DA:32,3
DA:34,3
DA:38,3
DA:40,3
DA:41,3
DA:43,3
DA:47,3
DA:48,3
DA:49,3
DA:50,3
DA:52,3
DA:53,3
DA:54,3
DA:55,3
DA:57,3
DA:60,3
DA:61,3
DA:66,6
DA:69,6
DA:71,0
DA:72,0
DA:73,0
DA:75,6
DA:76,0
DA:77,0
DA:78,0
DA:79,0
DA:81,6
DA:82,6
DA:83,3
DA:85,0
DA:87,0
DA:88,80
LF:36
LH:27
end_of_record
TN:
SF:/home/intel/ros2_overlay_ws/src/ros2_openvino_toolkit/dynamic_vino_lib/src/models/base_model.cpp
FN:90,_ZN6Models20ObjectDetectionModelC2ERKNSt7__cxx1112basic_stringIcSt11char_traitsIcESaIcEEEiii
FN:94,_Z41__static_initialization_and_destruction_0ii
FN:94,_GLOBAL__sub_I_base_model.cpp
FNDA:19,_ZN6Models9BaseModelC2ERKNSt7__cxx1112basic_stringIcSt11char_traitsIcESaIcEEEiii
FNDA:8,_ZN6Models20ObjectDetectionModelC2ERKNSt7__cxx1112basic_stringIcSt11char_traitsIcESaIcEEEiii
FNDA:20,_Z41__static_initialization_and_destruction_0ii
FNDA:14,_ZN6Models9BaseModel16checkNetworkSizeEiiSt10shared_ptrIN15InferenceEngine12CNNNetReaderEE
FNDA:19,_ZN6Models9BaseModel9modelInitEv
FNDA:20,_GLOBAL__sub_I_base_model.cpp
FNF:6
FNH:6
BRDA:37,0,0,0
BRDA:37,0,1,19
BRDA:38,0,2,-
BRDA:38,0,3,-
BRDA:51,4294967295,2,16
BRDA:51,4294967295,3,0
BRDA:56,4294967295,1,16
BRDA:56,4294967295,2,0
BRDA:57,0,1,16
BRDA:57,0,2,0
BRDA:59,0,1,16
BRDA:59,0,2,0
BRDA:60,0,1,16
BRDA:60,0,2,0
BRDA:61,0,1,16
BRDA:61,0,2,0
BRDA:61,1,4,16
BRDA:61,1,5,0
BRDA:63,4294967295,1,14
BRDA:63,4294967295,2,2
BRDA:64,0,1,14
BRDA:64,0,2,0
BRDA:65,4294967295,1,14
BRDA:65,4294967295,2,0
BRDA:76,4294967295,0,0
BRDA:76,4294967295,1,14
BRDA:77,0,1,-
BRDA:77,0,2,-
BRDA:77,1,4,-
BRDA:77,1,5,-
BRDA:77,2,7,-
BRDA:77,2,8,-
BRDA:77,3,10,-
BRDA:77,3,11,-
BRDA:78,1,2,-
BRDA:78,1,3,-
BRDA:81,0,1,14
BRDA:81,0,2,0
BRDA:82,0,1,14
BRDA:82,0,2,0
BRDA:83,4294967295,0,0
BRDA:83,4294967295,1,14
BRDA:84,0,1,-
BRDA:84,0,2,-
BRDA:84,1,4,-
BRDA:84,1,5,-
BRDA:84,2,7,-
BRDA:84,2,8,-
BRDA:84,3,10,-
BRDA:84,3,11,-
BRDA:85,1,2,-
BRDA:85,1,3,-
BRDA:94,3,1,20
BRDA:94,3,2,0
BRDA:94,4,3,20
BRDA:94,4,4,0
BRF:56
BRH:18
DA:29,19
DA:31,19
DA:35,0
DA:37,19
DA:38,0
DA:41,19
DA:42,19
DA:44,19
DA:46,19
DA:48,19
DA:50,16
DA:51,16
DA:55,16
DA:56,16
DA:57,16
DA:59,16
DA:60,32
DA:61,16
DA:62,16
DA:63,16
DA:64,14
DA:65,14
DA:66,14
DA:68,14
DA:74,14
DA:75,14
DA:76,14
DA:77,0
DA:78,0
DA:81,14
DA:82,14
DA:83,14
DA:84,0
DA:85,0
DA:88,14
DA:90,8
DA:93,8
DA:94,88
LF:38
LH:32
end_of_record
TN:
SF:/home/intel/ros2_overlay_ws/src/ros2_openvino_toolkit/dynamic_vino_lib/src/models/emotion_detection_model.cpp
FN:25,_ZN6Models21EmotionDetectionModelC2ERKNSt7__cxx1112basic_stringIcSt11char_traitsIcESaIcEEEiii
FN:66,_ZNK6Models21EmotionDetectionModel12getModelNameB5cxx11Ev
FN:69,_Z41__static_initialization_and_destruction_0ii
FN:69,_GLOBAL__sub_I_emotion_detection_model.cpp
FNDA:3,_ZN6Models21EmotionDetectionModel18checkLayerPropertyERKSt10shared_ptrIN15InferenceEngine12CNNNetReaderEE
FNDA:3,_ZN6Models21EmotionDetectionModel16setLayerPropertyESt10shared_ptrIN15InferenceEngine12CNNNetReaderEE
FNDA:3,_ZN6Models21EmotionDetectionModelC2ERKNSt7__cxx1112basic_stringIcSt11char_traitsIcESaIcEEEiii
FNDA:0,_ZNK6Models21EmotionDetectionModel12getModelNameB5cxx11Ev
FNDA:20,_GLOBAL__sub_I_emotion_detection_model.cpp
FNDA:20,_Z41__static_initialization_and_destruction_0ii
FNF:6
FNH:5
BRDA:37,4294967295,1,3
BRDA:37,4294967295,2,0
BRDA:38,0,1,3
BRDA:38,0,2,0
BRDA:40,0,1,3
BRDA:40,0,2,0
BRDA:42,4294967295,1,3
BRDA:42,4294967295,2,0
BRDA:43,0,1,3
BRDA:43,0,2,0
BRDA:56,4294967295,1,3
BRDA:56,4294967295,2,0
BRDA:56,0,3,0
BRDA:56,0,4,3
BRDA:57,4294967295,1,-
BRDA:57,4294967295,2,-
BRDA:58,4294967295,1,-
BRDA:58,4294967295,2,-
BRDA:58,0,4,-
BRDA:58,0,5,-
BRDA:59,0,1,-
BRDA:59,0,2,-
BRDA:60,0,2,-
BRDA:60,0,3,-
BRDA:60,1,5,-
BRDA:60,1,6,-
BRDA:62,0,1,3
BRDA:62,0,2,0
BRDA:62,1,4,3
BRDA:62,1,5,0
BRDA:62,1,7,3
BRDA:62,1,8,0
BRDA:69,3,1,20
BRDA:69,3,2,0
BRDA:69,4,3,20
BRDA:69,4,4,0
BRF:36
BRH:12
DA:25,3
DA:27,3
DA:28,3
DA:30,3
DA:32,3
DA:35,3
DA:37,3
DA:38,3
DA:40,3
DA:42,3
DA:43,3
DA:45,3
DA:46,3
DA:47,3
DA:49,3
DA:52,3
DA:53,3
DA:56,6
DA:57,0
DA:58,0
DA:59,0
DA:60,0
DA:62,6
DA:64,3
DA:66,0
DA:68,0
DA:69,80
LF:27
LH:21
end_of_record
TN:
SF:/home/intel/ros2_overlay_ws/src/ros2_openvino_toolkit/dynamic_vino_lib/src/models/face_detection_model.cpp
FN:26,_ZN6Models18FaceDetectionModelC2ERKNSt7__cxx1112basic_stringIcSt11char_traitsIcESaIcEEEiii
FN:33,_ZNK6Models18FaceDetectionModel12getModelNameB5cxx11Ev
FN:36,_GLOBAL__sub_I_face_detection_model.cpp
FNDA:0,_ZNK6Models18FaceDetectionModel12getModelNameB5cxx11Ev
FNDA:20,_Z41__static_initialization_and_destruction_0ii
FNDA:20,_GLOBAL__sub_I_face_detection_model.cpp
FNDA:0,_ZN6Models18FaceDetectionModelC2ERKNSt7__cxx1112basic_stringIcSt11char_traitsIcESaIcEEEiii
FNF:4
FNH:2
BRDA:36,3,1,20
BRDA:36,3,2,0
BRDA:36,4,3,20
BRDA:36,4,4,0
BRF:4
BRH:2
DA:26,0
DA:28,0
DA:29,0
DA:31,0
DA:33,0
DA:35,0
DA:36,80
LF:7
LH:1
end_of_record
TN:
SF:/home/intel/ros2_overlay_ws/src/ros2_openvino_toolkit/dynamic_vino_lib/src/models/face_reidentification_model.cpp
FN:23,_ZN6Models25FaceReidentificationModelC2ERKNSt7__cxx1112basic_stringIcSt11char_traitsIcESaIcEEEiii
FN:47,_ZN6Models25FaceReidentificationModel18checkLayerPropertyERKSt10shared_ptrIN15InferenceEngine12CNNNetReaderEE
FN:50,_ZNK6Models25FaceReidentificationModel12getModelNameB5cxx11Ev
FN:53,_Z41__static_initialization_and_destruction_0ii
FN:53,_GLOBAL__sub_I_face_reidentification_model.cpp
FNDA:0,_ZNK6Models25FaceReidentificationModel12getModelNameB5cxx11Ev
FNDA:0,_ZN6Models25FaceReidentificationModel18checkLayerPropertyERKSt10shared_ptrIN15InferenceEngine12CNNNetReaderEE
FNDA:0,_ZN6Models25FaceReidentificationModelC2ERKNSt7__cxx1112basic_stringIcSt11char_traitsIcESaIcEEEiii
FNDA:20,_Z41__static_initialization_and_destruction_0ii
FNDA:0,_ZN6Models25FaceReidentificationModel16setLayerPropertyESt10shared_ptrIN15InferenceEngine12CNNNetReaderEE
FNDA:20,_GLOBAL__sub_I_face_reidentification_model.cpp
FNF:6
FNH:2
BRDA:34,4294967295,1,-
BRDA:34,4294967295,2,-
BRDA:35,4294967295,1,-
BRDA:35,4294967295,2,-
BRDA:38,0,1,-
BRDA:38,0,2,-
BRDA:40,4294967295,1,-
BRDA:40,4294967295,2,-
BRDA:41,0,1,-
BRDA:41,0,2,-
BRDA:53,3,1,20
BRDA:53,3,2,0
BRDA:53,4,3,20
BRDA:53,4,4,0
BRF:14
BRH:2
DA:23,0
DA:24,0
DA:25,0
DA:27,0
DA:32,0
DA:34,0
DA:35,0
DA:38,0
DA:40,0
DA:41,0
DA:43,0
DA:44,0
DA:45,0
DA:47,0
DA:48,0
DA:50,0
DA:52,0
DA:53,80
LF:18
LH:1
end_of_record
TN:
SF:/home/intel/ros2_overlay_ws/src/ros2_openvino_toolkit/dynamic_vino_lib/src/models/head_pose_detection_model.cpp
FN:27,_ZN6Models22HeadPoseDetectionModelC2ERKNSt7__cxx1112basic_stringIcSt11char_traitsIcESaIcEEEiii
FN:83,_ZNK6Models22HeadPoseDetectionModel12getModelNameB5cxx11Ev
FN:86,_Z41__static_initialization_and_destruction_0ii
FN:86,_GLOBAL__sub_I_head_pose_detection_model.cpp
FNDA:0,_ZNK6Models22HeadPoseDetectionModel12getModelNameB5cxx11Ev
FNDA:3,_ZN6Models22HeadPoseDetectionModel18checkLayerPropertyERKSt10shared_ptrIN15InferenceEngine12CNNNetReaderEE
FNDA:3,_ZN6Models22HeadPoseDetectionModel16setLayerPropertyESt10shared_ptrIN15InferenceEngine12CNNNetReaderEE
FNDA:20,_Z41__static_initialization_and_destruction_0ii
FNDA:20,_GLOBAL__sub_I_head_pose_detection_model.cpp
FNDA:3,_ZN6Models22HeadPoseDetectionModelC2ERKNSt7__cxx1112basic_stringIcSt11char_traitsIcESaIcEEEiii
FNF:6
FNH:5
BRDA:30,0,2,3
BRDA:30,0,3,0
BRDA:30,1,5,3
BRDA:30,1,6,0
BRDA:30,2,8,3
BRDA:30,2,9,0
BRDA:41,0,1,0
BRDA:41,0,2,3
BRDA:41,3,3,9
BRDA:41,3,4,3
BRDA:41,3,5,-
BRDA:41,3,6,-
BRDA:43,0,0,9
BRDA:43,0,1,3
BRDA:44,0,1,9
BRDA:44,0,2,0
BRDA:45,4294967295,0,0
BRDA:45,4294967295,1,9
BRDA:46,4294967295,1,-
BRDA:46,4294967295,2,-
BRDA:46,0,4,-
BRDA:46,0,5,-
BRDA:47,0,1,-
BRDA:47,0,2,-
BRDA:47,1,4,-
BRDA:47,1,5,-
BRDA:47,2,7,-
BRDA:47,2,8,-
BRDA:47,3,10,-
BRDA:47,3,11,-
BRDA:47,4,13,-
BRDA:47,4,14,-
BRDA:48,1,2,-
BRDA:48,1,3,-
BRDA:50,4294967295,0,0
BRDA:50,4294967295,1,9
BRDA:51,4294967295,1,-
BRDA:51,4294967295,2,-
BRDA:51,0,4,-
BRDA:51,0,5,-
BRDA:52,1,2,-
BRDA:52,1,3,-
BRDA:52,2,5,-
BRDA:52,2,6,-
BRDA:52,3,8,-
BRDA:52,3,9,-
BRDA:54,0,0,9
BRDA:54,0,1,0
BRDA:55,0,0,0
BRDA:55,0,1,9
BRDA:56,0,1,-
BRDA:56,0,2,-
BRDA:56,1,4,-
BRDA:56,1,5,-
BRDA:57,0,1,-
BRDA:57,0,2,-
BRDA:57,1,4,-
BRDA:57,1,5,-
BRDA:58,1,2,-
BRDA:58,1,3,-
BRDA:60,0,1,9
BRDA:60,0,2,0
BRDA:70,4294967295,1,3
BRDA:70,4294967295,2,0
BRDA:71,4294967295,1,3
BRDA:71,4294967295,2,0
BRDA:75,0,1,3
BRDA:75,0,2,0
BRDA:77,0,0,9
BRDA:77,0,1,3
BRDA:78,0,1,9
BRDA:78,0,2,0
BRDA:79,0,1,9
BRDA:79,0,2,0
BRDA:86,3,1,20
BRDA:86,3,2,0
BRDA:86,4,3,20
BRDA:86,4,4,0
BRF:78
BRH:23
DA:27,3
DA:29,3
DA:30,3
DA:32,3
DA:34,3
DA:37,3
DA:38,3
DA:41,12
DA:43,12
DA:44,9
DA:45,9
DA:46,0
DA:47,0
DA:48,0
DA:50,9
DA:51,0
DA:52,0
DA:54,9
DA:55,9
DA:56,0
DA:57,0
DA:58,0
DA:60,9
DA:62,3
DA:64,3
DA:67,3
DA:70,3
DA:71,3
DA:72,3
DA:75,3
DA:77,12
DA:78,9
DA:79,9
DA:81,3
DA:83,0
DA:85,0
DA:86,80
LF:37
LH:27
end_of_record
TN:
SF:/home/intel/ros2_overlay_ws/src/ros2_openvino_toolkit/dynamic_vino_lib/src/models/landmarks_detection_model.cpp
FN:23,_ZN6Models23LandmarksDetectionModelC2ERKNSt7__cxx1112basic_stringIcSt11char_traitsIcESaIcEEEiii
FN:62,_ZNK6Models23LandmarksDetectionModel12getModelNameB5cxx11Ev
FN:65,_GLOBAL__sub_I_landmarks_detection_model.cpp
FN:65,_Z41__static_initialization_and_destruction_0ii
FNDA:0,_ZN6Models23LandmarksDetectionModel18checkLayerPropertyERKSt10shared_ptrIN15InferenceEngine12CNNNetReaderEE
FNDA:0,_ZNK6Models23LandmarksDetectionModel12getModelNameB5cxx11Ev
FNDA:0,_ZN6Models23LandmarksDetectionModelC2ERKNSt7__cxx1112basic_stringIcSt11char_traitsIcESaIcEEEiii
FNDA:0,_ZN6Models23LandmarksDetectionModel16setLayerPropertyESt10shared_ptrIN15InferenceEngine12CNNNetReaderEE
FNDA:20,_GLOBAL__sub_I_landmarks_detection_model.cpp
FNDA:20,_Z41__static_initialization_and_destruction_0ii
FNF:6
FNH:2
BRDA:34,4294967295,1,-
BRDA:34,4294967295,2,-
BRDA:35,4294967295,1,-
BRDA:35,4294967295,2,-
BRDA:38,0,1,-
BRDA:38,0,2,-
BRDA:40,4294967295,1,-
BRDA:40,4294967295,2,-
BRDA:41,0,1,-
BRDA:41,0,2,-
BRDA:52,4294967295,0,-
BRDA:52,4294967295,1,-
BRDA:53,0,2,-
BRDA:53,0,3,-
BRDA:56,0,1,-
BRDA:56,0,2,-
BRDA:57,4294967295,0,-
BRDA:57,4294967295,1,-
BRDA:58,0,2,-
BRDA:58,0,3,-
BRDA:65,3,1,20
BRDA:65,3,2,0
BRDA:65,4,3,20
BRDA:65,4,4,0
BRF:24
BRH:2
DA:23,0
DA:24,0
DA:25,0
DA:27,0
DA:32,0
DA:34,0
DA:35,0
DA:38,0
DA:40,0
DA:41,0
DA:43,0
DA:44,0
DA:45,0
DA:47,0
DA:51,0
DA:52,0
DA:53,0
DA:56,0
DA:57,0
DA:58,0
DA:60,0
DA:62,0
DA:64,0
DA:65,80
LF:24
LH:1
end_of_record
TN:
SF:/home/intel/ros2_overlay_ws/src/ros2_openvino_toolkit/dynamic_vino_lib/src/models/license_plate_detection_model.cpp
FN:23,_ZN6Models26LicensePlateDetectionModelC2ERKNSt7__cxx1112basic_stringIcSt11char_traitsIcESaIcEEEiii
FN:64,_ZNK6Models26LicensePlateDetectionModel12getModelNameB5cxx11Ev
FN:67,_Z41__static_initialization_and_destruction_0ii
FN:67,_GLOBAL__sub_I_license_plate_detection_model.cpp
FNDA:0,_ZN6Models26LicensePlateDetectionModelC2ERKNSt7__cxx1112basic_stringIcSt11char_traitsIcESaIcEEEiii
FNDA:0,_ZN6Models26LicensePlateDetectionModel16setLayerPropertyESt10shared_ptrIN15InferenceEngine12CNNNetReaderEE
FNDA:0,_ZN6Models26LicensePlateDetectionModel18checkLayerPropertyERKSt10shared_ptrIN15InferenceEngine12CNNNetReaderEE
FNDA:20,_GLOBAL__sub_I_license_plate_detection_model.cpp
FNDA:20,_Z41__static_initialization_and_destruction_0ii
FNDA:0,_ZNK6Models26LicensePlateDetectionModel12getModelNameB5cxx11Ev
FNF:6
FNH:2
BRDA:34,4294967295,1,-
BRDA:34,4294967295,2,-
BRDA:35,4294967295,1,-
BRDA:35,4294967295,2,-
BRDA:38,0,1,-
BRDA:38,0,2,-
BRDA:50,4294967295,0,-
BRDA:50,4294967295,1,-
BRDA:51,0,2,-
BRDA:51,0,3,-
BRDA:54,0,1,-
BRDA:54,0,2,-
BRDA:54,1,3,-
BRDA:54,1,4,-
BRDA:55,0,2,-
BRDA:55,0,3,-
BRDA:58,0,1,-
BRDA:58,0,2,-
BRDA:59,4294967295,0,-
BRDA:59,4294967295,1,-
BRDA:60,0,2,-
BRDA:60,0,3,-
BRDA:67,3,1,20
BRDA:67,3,2,0
BRDA:67,4,3,20
BRDA:67,4,4,0
BRF:26
BRH:2
DA:23,0
DA:24,0
DA:25,0
DA:27,0
DA:32,0
DA:34,0
DA:35,0
DA:38,0
DA:40,0
DA:41,0
DA:42,0
DA:43,0
DA:45,0
DA:49,0
DA:50,0
DA:51,0
DA:54,0
DA:55,0
DA:58,0
DA:59,0
DA:60,0
DA:62,0
DA:64,0
DA:66,0
DA:67,80
LF:25
LH:1
end_of_record
TN:
SF:/home/intel/ros2_overlay_ws/src/ros2_openvino_toolkit/dynamic_vino_lib/src/models/object_detection_ssd_model.cpp
FN:28,_ZN6Models23ObjectDetectionSSDModelC2ERKNSt7__cxx1112basic_stringIcSt11char_traitsIcESaIcEEEiii
FN:106,_ZNK6Models23ObjectDetectionSSDModel12getModelNameB5cxx11Ev
FN:111,_ZN6Models23ObjectDetectionSSDModel7enqueueERKSt10shared_ptrIN7Engines6EngineEERKN2cv3MatERKNS7_5Rect_IiEE
FN:210,_GLOBAL__sub_I_object_detection_ssd_model.cpp
FN:210,_Z41__static_initialization_and_destruction_0ii
FNDA:8,_ZN6Models23ObjectDetectionSSDModelC2ERKNSt7__cxx1112basic_stringIcSt11char_traitsIcESaIcEEEiii
FNDA:20,_Z41__static_initialization_and_destruction_0ii
FNDA:0,_ZNK6Models23ObjectDetectionSSDModel12getModelNameB5cxx11Ev
FNDA:4,_ZN6Models23ObjectDetectionSSDModel9matToBlobERKN2cv3MatERKNS1_5Rect_IiEEfiRKSt10shared_ptrIN7Engines6EngineEE
FNDA:5,_ZN6Models23ObjectDetectionSSDModel16setLayerPropertyESt10shared_ptrIN15InferenceEngine12CNNNetReaderEE
FNDA:4,_ZN6Models23ObjectDetectionSSDModel12fetchResultsERKSt10shared_ptrIN7Engines6EngineEERSt6vectorIN16dynamic_vino_lib21ObjectDetectionResultESaIS9_EERKfRKb
FNDA:5,_ZN6Models23ObjectDetectionSSDModel18checkLayerPropertyERKSt10shared_ptrIN15InferenceEngine12CNNNetReaderEE
FNDA:20,_GLOBAL__sub_I_object_detection_ssd_model.cpp
FNDA:4,_ZN6Models23ObjectDetectionSSDModel7enqueueERKSt10shared_ptrIN7Engines6EngineEERKN2cv3MatERKNS7_5Rect_IiEE
FNF:9
FNH:8
BRDA:41,4294967295,1,5
BRDA:41,4294967295,2,0
BRDA:42,4294967295,1,5
BRDA:42,4294967295,2,0
BRDA:44,0,1,5
BRDA:44,0,2,0
BRDA:46,4294967295,1,5
BRDA:46,4294967295,2,0
BRDA:47,0,1,5
BRDA:47,0,2,0
BRDA:58,4294967295,1,5
BRDA:58,4294967295,2,0
BRDA:59,0,0,0
BRDA:59,0,1,5
BRDA:60,0,2,-
BRDA:60,0,3,-
BRDA:64,0,1,5
BRDA:64,0,2,0
BRDA:64,1,4,5
BRDA:64,1,5,0
BRDA:67,0,1,5
BRDA:67,0,2,0
BRDA:67,1,4,5
BRDA:67,1,5,0
BRDA:69,4294967295,1,5
BRDA:69,4294967295,2,0
BRDA:70,0,1,5
BRDA:70,0,2,0
BRDA:70,1,3,0
BRDA:70,1,4,5
BRDA:71,4294967295,1,-
BRDA:71,4294967295,2,-
BRDA:71,0,4,-
BRDA:71,0,5,-
BRDA:72,1,2,-
BRDA:72,1,3,-
BRDA:76,0,1,5
BRDA:76,0,2,0
BRDA:78,0,1,5
BRDA:78,0,2,0
BRDA:78,1,4,5
BRDA:78,1,5,0
BRDA:79,0,0,3
BRDA:79,0,1,2
BRDA:80,0,0,3
BRDA:80,0,1,0
BRDA:81,0,1,3
BRDA:81,0,2,0
BRDA:87,0,1,5
BRDA:87,0,2,0
BRDA:87,1,4,5
BRDA:87,1,5,0
BRDA:89,0,1,5
BRDA:89,0,2,0
BRDA:89,1,4,5
BRDA:89,1,5,0
BRDA:92,0,0,0
BRDA:92,0,1,5
BRDA:94,0,2,-
BRDA:94,0,3,-
BRDA:98,0,0,0
BRDA:98,0,1,5
BRDA:101,0,1,-
BRDA:101,0,2,-
BRDA:102,1,2,-
BRDA:102,1,3,-
BRDA:116,0,1,4
BRDA:116,0,2,0
BRDA:128,0,0,0
BRDA:128,0,1,4
BRDA:135,4294967295,1,4
BRDA:135,4294967295,2,0
BRDA:137,0,2,4
BRDA:137,0,3,0
BRDA:143,0,1,4
BRDA:143,0,2,0
BRDA:144,0,0,0
BRDA:144,0,1,4
BRDA:144,1,2,-
BRDA:144,1,3,-
BRDA:145,0,1,4
BRDA:145,0,2,0
BRDA:149,0,0,12
BRDA:149,0,1,4
BRDA:150,0,0,4104
BRDA:150,0,1,12
BRDA:151,0,0,2088288
BRDA:151,0,1,4104
BRDA:167,0,0,0
BRDA:167,0,1,4
BRDA:174,0,1,4
BRDA:174,0,2,0
BRDA:176,0,1,4
BRDA:176,0,2,0
BRDA:178,0,0,408
BRDA:178,0,1,2
BRDA:180,0,0,406
BRDA:180,0,1,2
BRDA:194,0,0,406
BRDA:194,0,1,0
BRDA:196,0,1,406
BRDA:196,0,2,0
BRDA:198,0,0,406
BRDA:198,0,1,0
BRDA:198,1,3,-
BRDA:198,1,4,-
BRDA:198,2,6,-
BRDA:198,2,7,-
BRDA:198,3,8,0
BRDA:198,3,9,406
BRDA:198,4,10,0
BRDA:198,4,11,406
BRDA:198,4,12,-
BRDA:198,4,13,-
BRDA:198,4,14,-
BRDA:198,4,15,-
BRDA:201,0,0,384
BRDA:201,0,1,22
BRDA:206,0,1,22
BRDA:206,0,2,0
BRDA:210,3,1,20
BRDA:210,3,2,0
BRDA:210,4,3,20
BRDA:210,4,4,0
BRF:124
BRH:57
DA:28,8
DA:30,8
DA:31,8
DA:33,8
DA:35,5
DA:39,5
DA:41,5
DA:42,5
DA:44,5
DA:46,5
DA:47,5
DA:49,5
DA:50,5
DA:51,5
DA:53,5
DA:56,5
DA:57,5
DA:58,5
DA:59,5
DA:60,0
DA:63,5
DA:64,5
DA:67,5
DA:69,5
DA:70,10
DA:71,0
DA:72,0
DA:76,5
DA:78,5
DA:79,5
DA:80,3
DA:81,6
DA:83,0
DA:87,5
DA:88,5
DA:89,5
DA:91,5
DA:92,5
DA:94,0
DA:98,5
DA:101,0
DA:102,0
DA:104,5
DA:106,0
DA:108,0
DA:111,4
DA:116,4
DA:120,4
DA:124,4
DA:128,4
DA:129,0
DA:135,4
DA:137,4
DA:138,4
DA:139,4
DA:140,4
DA:141,4
DA:143,8
DA:144,4
DA:145,4
DA:147,4
DA:149,16
DA:150,4116
DA:151,2092392
DA:152,2088288
DA:153,4176576
DA:161,4
DA:167,4
DA:168,0
DA:174,4
DA:176,4
DA:177,4
DA:178,410
DA:179,408
DA:180,408
DA:186,406
DA:189,406
DA:190,406
DA:191,406
DA:192,406
DA:194,406
DA:196,406
DA:197,406
DA:198,812
DA:200,406
DA:201,406
DA:206,22
DA:210,80
LF:88
LH:77
end_of_record
TN:
SF:/home/intel/ros2_overlay_ws/src/ros2_openvino_toolkit/dynamic_vino_lib/src/models/object_detection_yolov2_model.cpp
FN:113,_ZNK6Models26ObjectDetectionYolov2Model12getModelNameB5cxx11Ev
FN:118,_ZN6Models26ObjectDetectionYolov2Model7enqueueERKSt10shared_ptrIN7Engines6EngineEERKN2cv3MatERKNS7_5Rect_IiEE
FN:340,_ZN6Models26ObjectDetectionYolov2Model13getEntryIndexEiiiii
FN:347,_Z41__static_initialization_and_destruction_0ii
FN:347,_GLOBAL__sub_I_object_detection_yolov2_model.cpp
FNDA:0,_ZN6Models26ObjectDetectionYolov2ModelC2ERKNSt7__cxx1112basic_stringIcSt11char_traitsIcESaIcEEEiii
FNDA:0,_ZN6Models26ObjectDetectionYolov2Model7enqueueERKSt10shared_ptrIN7Engines6EngineEERKN2cv3MatERKNS7_5Rect_IiEE
FNDA:0,_ZN6Models26ObjectDetectionYolov2Model18checkLayerPropertyERKSt10shared_ptrIN15InferenceEngine12CNNNetReaderEE
FNDA:20,_GLOBAL__sub_I_object_detection_yolov2_model.cpp
FNDA:0,_ZN6Models26ObjectDetectionYolov2Model12fetchResultsERKSt10shared_ptrIN7Engines6EngineEERSt6vectorIN16dynamic_vino_lib21ObjectDetectionResultESaIS9_EERKfRKb
FNDA:0,_ZN6Models26ObjectDetectionYolov2Model16setLayerPropertyESt10shared_ptrIN15InferenceEngine12CNNNetReaderEE
FNDA:0,_ZN6Models26ObjectDetectionYolov2Model13getEntryIndexEiiiii
FNDA:0,_ZNK6Models26ObjectDetectionYolov2Model12getModelNameB5cxx11Ev
FNDA:20,_Z41__static_initialization_and_destruction_0ii
FNDA:0,_ZN6Models26ObjectDetectionYolov2Model9matToBlobERKN2cv3MatERKNS1_5Rect_IiEEfiRKSt10shared_ptrIN7Engines6EngineEE
FNF:10
FNH:2
BRDA:43,4294967295,0,-
BRDA:43,4294967295,1,-
BRDA:44,0,2,-
BRDA:44,0,3,-
BRDA:47,0,1,-
BRDA:47,0,2,-
BRDA:48,4294967295,1,-
BRDA:48,4294967295,2,-
BRDA:51,0,1,-
BRDA:51,0,2,-
BRDA:53,4294967295,1,-
BRDA:53,4294967295,2,-
BRDA:65,4294967295,1,-
BRDA:65,4294967295,2,-
BRDA:66,0,0,-
BRDA:66,0,1,-
BRDA:67,0,2,-
BRDA:67,0,3,-
BRDA:71,0,1,-
BRDA:71,0,2,-
BRDA:71,1,4,-
BRDA:71,1,5,-
BRDA:73,0,1,-
BRDA:73,0,2,-
BRDA:73,1,4,-
BRDA:73,1,5,-
BRDA:75,4294967295,1,-
BRDA:75,4294967295,2,-
BRDA:76,0,0,-
BRDA:76,0,1,-
BRDA:76,0,2,-
BRDA:76,0,3,-
BRDA:76,2,4,-
BRDA:76,2,5,-
BRDA:77,0,1,-
BRDA:77,0,2,-
BRDA:77,1,3,-
BRDA:77,1,4,-
BRDA:79,4294967295,1,-
BRDA:79,4294967295,2,-
BRDA:79,0,4,-
BRDA:79,0,5,-
BRDA:80,1,2,-
BRDA:80,1,3,-
BRDA:84,0,1,-
BRDA:84,0,2,-
BRDA:86,0,1,-
BRDA:86,0,2,-
BRDA:86,1,4,-
BRDA:86,1,5,-
BRDA:87,0,0,-
BRDA:87,0,1,-
BRDA:88,0,0,-
BRDA:88,0,1,-
BRDA:89,0,1,-
BRDA:89,0,2,-
BRDA:95,0,1,-
BRDA:95,0,2,-
BRDA:95,1,4,-
BRDA:95,1,5,-
BRDA:97,0,1,-
BRDA:97,0,2,-
BRDA:97,1,4,-
BRDA:97,1,5,-
BRDA:99,0,0,-
BRDA:99,0,1,-
BRDA:101,0,2,-
BRDA:101,0,3,-
BRDA:105,0,0,-
BRDA:105,0,1,-
BRDA:108,0,1,-
BRDA:108,0,2,-
BRDA:109,1,2,-
BRDA:109,1,3,-
BRDA:125,0,1,-
BRDA:125,0,2,-
BRDA:135,0,0,-
BRDA:135,0,1,-
BRDA:142,4294967295,1,-
BRDA:142,4294967295,2,-
BRDA:144,0,2,-
BRDA:144,0,3,-
BRDA:159,0,1,-
BRDA:159,0,2,-
BRDA:160,0,1,-
BRDA:160,0,2,-
BRDA:162,0,1,-
BRDA:162,0,2,-
BRDA:167,0,1,-
BRDA:167,0,2,-
BRDA:171,0,1,-
BRDA:171,0,2,-
BRDA:175,0,0,-
BRDA:175,0,1,-
BRDA:188,0,0,-
BRDA:188,0,1,-
BRDA:189,0,0,-
BRDA:189,0,1,-
BRDA:190,0,0,-
BRDA:190,0,1,-
BRDA:196,0,0,-
BRDA:196,0,1,-
BRDA:197,0,0,-
BRDA:197,0,1,-
BRDA:198,0,0,-
BRDA:198,0,1,-
BRDA:215,0,0,-
BRDA:215,0,1,-
BRDA:216,0,1,-
BRDA:216,0,2,-
BRDA:225,0,1,-
BRDA:225,0,2,-
BRDA:228,4294967295,1,-
BRDA:228,4294967295,2,-
BRDA:229,0,1,-
BRDA:229,0,2,-
BRDA:232,0,0,-
BRDA:232,0,1,-
BRDA:232,0,2,-
BRDA:232,0,3,-
BRDA:233,0,2,-
BRDA:233,0,3,-
BRDA:233,1,5,-
BRDA:233,1,6,-
BRDA:233,2,8,-
BRDA:233,2,9,-
BRDA:236,0,1,-
BRDA:236,0,2,-
BRDA:237,0,1,-
BRDA:237,0,2,-
BRDA:238,0,1,-
BRDA:238,0,2,-
BRDA:240,0,1,-
BRDA:240,0,2,-
BRDA:248,0,1,-
BRDA:248,0,2,-
BRDA:254,0,0,-
BRDA:254,0,1,-
BRDA:258,0,0,-
BRDA:258,0,1,-
BRDA:259,0,1,-
BRDA:259,0,2,-
BRDA:260,0,1,-
BRDA:260,0,2,-
BRDA:264,0,0,-
BRDA:264,0,1,-
BRDA:275,0,0,-
BRDA:275,0,1,-
BRDA:277,0,1,-
BRDA:277,0,2,-
BRDA:280,0,0,-
BRDA:280,0,1,-
BRDA:294,0,1,-
BRDA:294,0,2,-
BRDA:297,0,0,-
BRDA:297,0,1,-
BRDA:297,1,3,-
BRDA:297,1,4,-
BRDA:297,2,6,-
BRDA:297,2,7,-
BRDA:297,3,8,-
BRDA:297,3,9,-
BRDA:297,4,10,-
BRDA:297,4,11,-
BRDA:297,4,12,-
BRDA:297,4,13,-
BRDA:297,4,14,-
BRDA:297,4,15,-
BRDA:301,0,1,-
BRDA:301,0,2,-
BRDA:307,0,0,-
BRDA:307,0,1,-
BRDA:308,0,0,-
BRDA:308,0,1,-
BRDA:311,1,0,-
BRDA:311,1,1,-
BRDA:313,0,1,-
BRDA:313,0,2,-
BRDA:314,0,0,-
BRDA:314,0,1,-
BRDA:320,0,0,-
BRDA:320,0,1,-
BRDA:321,0,0,-
BRDA:321,0,1,-
BRDA:325,0,1,-
BRDA:325,0,2,-
BRDA:332,4294967295,2,-
BRDA:332,4294967295,3,-
BRDA:335,4294967295,1,-
BRDA:335,4294967295,2,-
BRDA:347,3,1,20
BRDA:347,3,2,0
BRDA:347,4,3,20
BRDA:347,4,4,0
BRF:194
BRH:2
DA:30,0
DA:32,0
DA:33,0
DA:35,0
DA:37,0
DA:41,0
DA:43,0
DA:44,0
DA:47,0
DA:48,0
DA:51,0
DA:53,0
DA:56,0
DA:57,0
DA:58,0
DA:60,0
DA:63,0
DA:64,0
DA:65,0
DA:66,0
DA:67,0
DA:70,0
DA:71,0
DA:73,0
DA:75,0
DA:76,0
DA:77,0
DA:79,0
DA:80,0
DA:84,0
DA:86,0
DA:87,0
DA:88,0
DA:89,0
DA:91,0
DA:95,0
DA:96,0
DA:97,0
DA:98,0
DA:99,0
DA:101,0
DA:105,0
DA:108,0
DA:109,0
DA:111,0
DA:113,0
DA:115,0
DA:118,0
DA:123,0
DA:125,0
DA:128,0
DA:131,0
DA:135,0
DA:136,0
DA:142,0
DA:144,0
DA:145,0
DA:146,0
DA:147,0
DA:148,0
DA:159,0
DA:160,0
DA:162,0
DA:166,0
DA:167,0
DA:168,0
DA:169,0
DA:170,0
DA:171,0
DA:175,0
DA:177,0
DA:180,0
DA:182,0
DA:183,0
DA:185,0
DA:186,0
DA:188,0
DA:189,0
DA:190,0
DA:191,0
DA:196,0
DA:197,0
DA:198,0
DA:199,0
DA:208,0
DA:215,0
DA:216,0
DA:225,0
DA:228,0
DA:229,0
DA:232,0
DA:233,0
DA:236,0
DA:237,0
DA:238,0
DA:240,0
DA:248,0
DA:251,0
DA:253,0
DA:254,0
DA:255,0
DA:256,0
DA:258,0
DA:259,0
DA:260,0
DA:262,0
DA:264,0
DA:265,0
DA:268,0
DA:269,0
DA:270,0
DA:271,0
DA:272,0
DA:273,0
DA:275,0
DA:277,0
DA:279,0
DA:280,0
DA:281,0
DA:284,0
DA:285,0
DA:288,0
DA:289,0
DA:290,0
DA:291,0
DA:293,0
DA:294,0
DA:296,0
DA:297,0
DA:301,0
DA:307,0
DA:308,0
DA:309,0
DA:311,0
DA:313,0
DA:314,0
DA:315,0
DA:320,0
DA:321,0
DA:322,0
DA:325,0
DA:328,0
DA:331,0
DA:332,0
DA:334,0
DA:335,0
DA:340,0
DA:344,0
DA:345,0
DA:346,0
DA:347,80
LF:151
LH:1
end_of_record
TN:
SF:/home/intel/ros2_overlay_ws/src/ros2_openvino_toolkit/dynamic_vino_lib/src/models/object_segmentation_model.cpp
FN:23,_ZN6Models23ObjectSegmentationModelC2ERKNSt7__cxx1112basic_stringIcSt11char_traitsIcESaIcEEEiii
FN:91,_ZNK6Models23ObjectSegmentationModel12getModelNameB5cxx11Ev
FN:94,_Z41__static_initialization_and_destruction_0ii
FN:94,_GLOBAL__sub_I_object_segmentation_model.cpp
FNDA:20,_GLOBAL__sub_I_object_segmentation_model.cpp
FNDA:2,_ZNK6Models23ObjectSegmentationModel12getModelNameB5cxx11Ev
FNDA:0,_ZN6Models23ObjectSegmentationModel16setLayerPropertyESt10shared_ptrIN15InferenceEngine12CNNNetReaderEE
FNDA:2,_ZN6Models23ObjectSegmentationModel16checkNetworkSizeEiiSt10shared_ptrIN15InferenceEngine12CNNNetReaderEE
FNDA:0,_ZN6Models23ObjectSegmentationModel18checkLayerPropertyERKSt10shared_ptrIN15InferenceEngine12CNNNetReaderEE
FNDA:2,_ZN6Models23ObjectSegmentationModelC2ERKNSt7__cxx1112basic_stringIcSt11char_traitsIcESaIcEEEiii
FNDA:20,_Z41__static_initialization_and_destruction_0ii
FNF:7
FNH:5
BRDA:36,4294967295,0,2
BRDA:36,4294967295,1,0
BRDA:37,0,1,2
BRDA:37,0,2,0
BRDA:37,1,4,2
BRDA:37,1,5,0
BRDA:37,2,7,2
BRDA:37,2,8,0
BRDA:37,3,10,2
BRDA:37,3,11,0
BRDA:38,1,2,2
BRDA:38,1,3,0
BRDA:41,0,1,-
BRDA:41,0,2,-
BRDA:42,0,1,-
BRDA:42,0,2,-
BRDA:43,4294967295,0,-
BRDA:43,4294967295,1,-
BRDA:43,0,2,-
BRDA:43,0,3,-
BRDA:44,0,1,-
BRDA:44,0,2,-
BRDA:44,1,4,-
BRDA:44,1,5,-
BRDA:44,2,7,-
BRDA:44,2,8,-
BRDA:44,3,10,-
BRDA:44,3,11,-
BRDA:45,1,2,-
BRDA:45,1,3,-
BRDA:54,4294967295,1,-
BRDA:54,4294967295,2,-
BRDA:55,0,1,-
BRDA:55,0,2,-
BRDA:56,0,1,-
BRDA:56,0,2,-
BRDA:58,0,1,-
BRDA:58,0,2,-
BRDA:58,1,4,-
BRDA:58,1,5,-
BRDA:58,1,6,-
BRDA:58,1,7,-
BRDA:60,4294967295,2,-
BRDA:60,4294967295,3,-
BRDA:60,4294967295,5,-
BRDA:60,4294967295,6,-
BRDA:60,4294967295,8,-
BRDA:60,4294967295,9,-
BRDA:62,0,1,-
BRDA:62,0,2,-
BRDA:63,0,1,-
BRDA:63,0,2,-
BRDA:63,1,4,-
BRDA:63,1,5,-
BRDA:63,2,7,-
BRDA:63,2,8,-
BRDA:65,4294967295,1,-
BRDA:65,4294967295,2,-
BRDA:66,0,0,-
BRDA:66,0,1,-
BRDA:67,0,1,-
BRDA:67,0,2,-
BRDA:79,0,2,-
BRDA:79,0,3,-
BRDA:80,4294967295,1,-
BRDA:80,4294967295,2,-
BRDA:81,0,1,-
BRDA:81,0,2,-
BRDA:81,1,4,-
BRDA:81,1,5,-
BRDA:82,0,0,-
BRDA:82,0,1,-
BRDA:83,0,0,-
BRDA:83,0,1,-
BRDA:84,0,1,-
BRDA:84,0,2,-
BRDA:94,3,1,20
BRDA:94,3,2,0
BRDA:94,4,3,20
BRDA:94,4,4,0
BRF:80
BRH:8
DA:23,2
DA:26,2
DA:27,2
DA:29,2
DA:31,2
DA:34,2
DA:35,2
DA:36,2
DA:37,2
DA:38,6
DA:41,0
DA:42,0
DA:43,0
DA:44,0
DA:45,0
DA:47,0
DA:49,0
DA:53,0
DA:54,0
DA:55,0
DA:56,0
DA:58,0
DA:59,0
DA:60,0
DA:62,0
DA:63,0
DA:65,0
DA:66,0
DA:67,0
DA:70,0
DA:71,0
DA:72,0
DA:73,0
DA:75,0
DA:79,0
DA:80,0
DA:81,0
DA:82,0
DA:83,0
DA:84,0
DA:86,0
DA:89,0
DA:91,2
DA:93,2
DA:94,80
LF:45
LH:13
end_of_record
TN:
SF:/home/intel/ros2_overlay_ws/src/ros2_openvino_toolkit/dynamic_vino_lib/src/models/person_attribs_detection_model.cpp
FN:23,_ZN6Models27PersonAttribsDetectionModelC2ERKNSt7__cxx1112basic_stringIcSt11char_traitsIcESaIcEEEiii
FN:59,_ZNK6Models27PersonAttribsDetectionModel12getModelNameB5cxx11Ev
FN:62,_GLOBAL__sub_I_person_attribs_detection_model.cpp
FN:62,_Z41__static_initialization_and_destruction_0ii
FNDA:0,_ZN6Models27PersonAttribsDetectionModel16setLayerPropertyESt10shared_ptrIN15InferenceEngine12CNNNetReaderEE
FNDA:20,_Z41__static_initialization_and_destruction_0ii
FNDA:0,_ZNK6Models27PersonAttribsDetectionModel12getModelNameB5cxx11Ev
FNDA:0,_ZN6Models27PersonAttribsDetectionModelC2ERKNSt7__cxx1112basic_stringIcSt11char_traitsIcESaIcEEEiii
FNDA:0,_ZN6Models27PersonAttribsDetectionModel18checkLayerPropertyERKSt10shared_ptrIN15InferenceEngine12CNNNetReaderEE
FNDA:20,_GLOBAL__sub_I_person_attribs_detection_model.cpp
FNF:6
FNH:2
BRDA:34,4294967295,1,-
BRDA:34,4294967295,2,-
BRDA:35,4294967295,1,-
BRDA:35,4294967295,2,-
BRDA:38,0,1,-
BRDA:38,0,2,-
BRDA:49,4294967295,0,-
BRDA:49,4294967295,1,-
BRDA:50,0,2,-
BRDA:50,0,3,-
BRDA:53,0,1,-
BRDA:53,0,2,-
BRDA:54,4294967295,0,-
BRDA:54,4294967295,1,-
BRDA:55,0,2,-
BRDA:55,0,3,-
BRDA:62,3,1,20
BRDA:62,3,2,0
BRDA:62,4,3,20
BRDA:62,4,4,0
BRF:20
BRH:2
DA:23,0
DA:24,0
DA:25,0
DA:27,0
DA:32,0
DA:34,0
DA:35,0
DA:38,0
DA:40,0
DA:41,0
DA:42,0
DA:44,0
DA:48,0
DA:49,0
DA:50,0
DA:53,0
DA:54,0
DA:55,0
DA:57,0
DA:59,0
DA:61,0
DA:62,80
LF:22
LH:1
end_of_record
TN:
SF:/home/intel/ros2_overlay_ws/src/ros2_openvino_toolkit/dynamic_vino_lib/src/models/person_reidentification_model.cpp
FN:23,_ZN6Models27PersonReidentificationModelC2ERKNSt7__cxx1112basic_stringIcSt11char_traitsIcESaIcEEEiii
FN:44,_ZN6Models27PersonReidentificationModel18checkLayerPropertyERKSt10shared_ptrIN15InferenceEngine12CNNNetReaderEE
FN:47,_ZNK6Models27PersonReidentificationModel12getModelNameB5cxx11Ev
FN:50,_GLOBAL__sub_I_person_reidentification_model.cpp
FN:50,_Z41__static_initialization_and_destruction_0ii
FNDA:0,_ZN6Models27PersonReidentificationModel16setLayerPropertyESt10shared_ptrIN15InferenceEngine12CNNNetReaderEE
FNDA:0,_ZN6Models27PersonReidentificationModelC2ERKNSt7__cxx1112basic_stringIcSt11char_traitsIcESaIcEEEiii
FNDA:20,_GLOBAL__sub_I_person_reidentification_model.cpp
FNDA:20,_Z41__static_initialization_and_destruction_0ii
FNDA:0,_ZN6Models27PersonReidentificationModel18checkLayerPropertyERKSt10shared_ptrIN15InferenceEngine12CNNNetReaderEE
FNDA:0,_ZNK6Models27PersonReidentificationModel12getModelNameB5cxx11Ev
FNF:6
FNH:2
BRDA:34,4294967295,1,-
BRDA:34,4294967295,2,-
BRDA:35,4294967295,1,-
BRDA:35,4294967295,2,-
BRDA:38,0,1,-
BRDA:38,0,2,-
BRDA:50,3,1,20
BRDA:50,3,2,0
BRDA:50,4,3,20
BRDA:50,4,4,0
BRF:10
BRH:2
DA:23,0
DA:24,0
DA:25,0
DA:27,0
DA:32,0
DA:34,0
DA:35,0
DA:38,0
DA:40,0
DA:41,0
DA:42,0
DA:44,0
DA:45,0
DA:47,0
DA:49,0
DA:50,80
LF:16
LH:1
end_of_record
TN:
SF:/home/intel/ros2_overlay_ws/src/ros2_openvino_toolkit/dynamic_vino_lib/src/models/vehicle_attribs_detection_model.cpp
FN:23,_ZN6Models28VehicleAttribsDetectionModelC2ERKNSt7__cxx1112basic_stringIcSt11char_traitsIcESaIcEEEiii
FN:61,_ZNK6Models28VehicleAttribsDetectionModel12getModelNameB5cxx11Ev
FN:64,_GLOBAL__sub_I_vehicle_attribs_detection_model.cpp
FN:64,_Z41__static_initialization_and_destruction_0ii
FNDA:0,_ZN6Models28VehicleAttribsDetectionModelC2ERKNSt7__cxx1112basic_stringIcSt11char_traitsIcESaIcEEEiii
FNDA:20,_Z41__static_initialization_and_destruction_0ii
FNDA:0,_ZN6Models28VehicleAttribsDetectionModel16setLayerPropertyESt10shared_ptrIN15InferenceEngine12CNNNetReaderEE
FNDA:20,_GLOBAL__sub_I_vehicle_attribs_detection_model.cpp
FNDA:0,_ZN6Models28VehicleAttribsDetectionModel18checkLayerPropertyERKSt10shared_ptrIN15InferenceEngine12CNNNetReaderEE
FNDA:0,_ZNK6Models28VehicleAttribsDetectionModel12getModelNameB5cxx11Ev
FNF:6
FNH:2
BRDA:34,4294967295,1,-
BRDA:34,4294967295,2,-
BRDA:35,4294967295,1,-
BRDA:35,4294967295,2,-
BRDA:38,0,1,-
BRDA:38,0,2,-
BRDA:51,4294967295,0,-
BRDA:51,4294967295,1,-
BRDA:52,0,2,-
BRDA:52,0,3,-
BRDA:55,0,1,-
BRDA:55,0,2,-
BRDA:56,4294967295,0,-
BRDA:56,4294967295,1,-
BRDA:57,0,2,-
BRDA:57,0,3,-
BRDA:64,3,1,20
BRDA:64,3,2,0
BRDA:64,4,3,20
BRDA:64,4,4,0
BRF:20
BRH:2
DA:23,0
DA:24,0
DA:25,0
DA:27,0
DA:32,0
DA:34,0
DA:35,0
DA:38,0
DA:40,0
DA:42,0
DA:43,0
DA:44,0
DA:46,0
DA:50,0
DA:51,0
DA:52,0
DA:55,0
DA:56,0
DA:57,0
DA:59,0
DA:61,0
DA:63,0
DA:64,80
LF:23
LH:1
end_of_record
TN:
SF:/home/intel/ros2_overlay_ws/src/ros2_openvino_toolkit/dynamic_vino_lib/src/outputs/base_output.cpp
FN:18,_ZN7Outputs10BaseOutput11setPipelineEP8Pipeline
FN:23,_ZNK7Outputs10BaseOutput11getPipelineEv
FN:28,_ZNK7Outputs10BaseOutput8getFrameEv
FN:31,_GLOBAL__sub_I_base_output.cpp
FNDA:0,_ZNK7Outputs10BaseOutput8getFrameEv
FNDA:20,_Z41__static_initialization_and_destruction_0ii
FNDA:20,_GLOBAL__sub_I_base_output.cpp
FNDA:10,_ZN7Outputs10BaseOutput11setPipelineEP8Pipeline
FNDA:0,_ZNK7Outputs10BaseOutput11getPipelineEv
FNF:5
FNH:3
BRDA:31,3,1,20
BRDA:31,3,2,0
BRDA:31,4,3,20
BRDA:31,4,4,0
BRF:4
BRH:2
DA:18,10
DA:20,10
DA:21,10
DA:23,0
DA:25,0
DA:28,0
DA:30,0
DA:31,80
LF:8
LH:4
end_of_record
TN:
SF:/home/intel/ros2_overlay_ws/src/ros2_openvino_toolkit/dynamic_vino_lib/src/outputs/image_window_output.cpp
FN:28,_ZN7Outputs17ImageWindowOutputC2ERKNSt7__cxx1112basic_stringIcSt11char_traitsIcESaIcEEEi
FN:34,_ZN7Outputs17ImageWindowOutput9feedFrameERKN2cv3MatE
FN:50,_ZN7Outputs17ImageWindowOutput10findOutputERKN2cv5Rect_IiEE
FN:65,_ZN7Outputs17ImageWindowOutput6acceptERKSt6vectorIN16dynamic_vino_lib27LicensePlateDetectionResultESaIS3_EE
FN:76,_ZN7Outputs17ImageWindowOutput6acceptERKSt6vectorIN16dynamic_vino_lib29VehicleAttribsDetectionResultESaIS3_EE
FN:88,_ZN7Outputs17ImageWindowOutput6acceptERKSt6vectorIN16dynamic_vino_lib26FaceReidentificationResultESaIS3_EE
FN:99,_ZN7Outputs17ImageWindowOutput6acceptERKSt6vectorIN16dynamic_vino_lib24LandmarksDetectionResultESaIS3_EE
FN:112,_ZN7Outputs17ImageWindowOutput6acceptERKSt6vectorIN16dynamic_vino_lib28PersonAttribsDetectionResultESaIS3_EE
FN:126,_ZN7Outputs17ImageWindowOutput6acceptERKSt6vectorIN16dynamic_vino_lib28PersonReidentificationResultESaIS3_EE
FN:137,_ZN7Outputs17ImageWindowOutput9mergeMaskERKSt6vectorIN16dynamic_vino_lib24ObjectSegmentationResultESaIS3_EE
FN:168,_ZN7Outputs17ImageWindowOutput6acceptERKSt6vectorIN16dynamic_vino_lib24ObjectSegmentationResultESaIS3_EE
FN:187,_ZN7Outputs17ImageWindowOutput6acceptERKSt6vectorIN16dynamic_vino_lib19FaceDetectionResultESaIS3_EE
FN:203,_ZN7Outputs17ImageWindowOutput6acceptERKSt6vectorIN16dynamic_vino_lib21ObjectDetectionResultESaIS3_EE
FN:221,_ZN7Outputs17ImageWindowOutput6acceptERKSt6vectorIN16dynamic_vino_lib14EmotionsResultESaIS3_EE
FN:234,_ZN7Outputs17ImageWindowOutput6acceptERKSt6vectorIN16dynamic_vino_lib15AgeGenderResultESaIS3_EE
FN:252,_ZN7Outputs17ImageWindowOutput8calcAxisEN2cv3MatEdddNS1_6Point_IiEE
FN:271,_ZN7Outputs17ImageWindowOutput20getRotationTransformEddd
FN:283,_ZN7Outputs17ImageWindowOutput6acceptERKSt6vectorIN16dynamic_vino_lib14HeadPoseResultESaIS3_EE
FN:338,_ZN7Outputs17ImageWindowOutput12handleOutputEv
FN:343,_GLOBAL__sub_I_image_window_output.cpp
FN:343,_Z41__static_initialization_and_destruction_0ii
FNDA:0,_ZN7Outputs17ImageWindowOutput6acceptERKSt6vectorIN16dynamic_vino_lib14HeadPoseResultESaIS3_EE
FNDA:0,_ZN7Outputs17ImageWindowOutput9feedFrameERKN2cv3MatE
FNDA:0,_ZN7Outputs17ImageWindowOutput8calcAxisEN2cv3MatEdddNS1_6Point_IiEE
FNDA:0,_ZN7Outputs17ImageWindowOutput9mergeMaskERKSt6vectorIN16dynamic_vino_lib24ObjectSegmentationResultESaIS3_EE
FNDA:0,_ZN7Outputs17ImageWindowOutput6acceptERKSt6vectorIN16dynamic_vino_lib28PersonReidentificationResultESaIS3_EE
FNDA:0,_ZN7Outputs17ImageWindowOutput6acceptERKSt6vectorIN16dynamic_vino_lib29VehicleAttribsDetectionResultESaIS3_EE
FNDA:0,_ZN7Outputs17ImageWindowOutputC2ERKNSt7__cxx1112basic_stringIcSt11char_traitsIcESaIcEEEi
FNDA:0,_ZN7Outputs17ImageWindowOutput6acceptERKSt6vectorIN16dynamic_vino_lib24LandmarksDetectionResultESaIS3_EE
FNDA:20,_GLOBAL__sub_I_image_window_output.cpp
FNDA:0,_ZN7Outputs17ImageWindowOutput6acceptERKSt6vectorIN16dynamic_vino_lib27LicensePlateDetectionResultESaIS3_EE
FNDA:0,_ZN7Outputs17ImageWindowOutput6acceptERKSt6vectorIN16dynamic_vino_lib14EmotionsResultESaIS3_EE
FNDA:0,_ZN7Outputs17ImageWindowOutput10findOutputERKN2cv5Rect_IiEE
FNDA:0,_ZN7Outputs17ImageWindowOutput12handleOutputEv
FNDA:20,_Z41__static_initialization_and_destruction_0ii
FNDA:0,_ZN7Outputs17ImageWindowOutput6acceptERKSt6vectorIN16dynamic_vino_lib15AgeGenderResultESaIS3_EE
FNDA:0,_ZN7Outputs17ImageWindowOutput6acceptERKSt6vectorIN16dynamic_vino_lib28PersonAttribsDetectionResultESaIS3_EE
FNDA:0,_ZN7Outputs17ImageWindowOutput6acceptERKSt6vectorIN16dynamic_vino_lib21ObjectDetectionResultESaIS3_EE
FNDA:0,_ZN7Outputs17ImageWindowOutput13decorateFrameEv
FNDA:0,_ZN7Outputs17ImageWindowOutput6acceptERKSt6vectorIN16dynamic_vino_lib19FaceDetectionResultESaIS3_EE
FNDA:0,_ZN7Outputs17ImageWindowOutput20getRotationTransformEddd
FNDA:0,_ZN7Outputs17ImageWindowOutput6acceptERKSt6vectorIN16dynamic_vino_lib26FaceReidentificationResultESaIS3_EE
FNDA:0,_ZN7Outputs17ImageWindowOutput6acceptERKSt6vectorIN16dynamic_vino_lib24ObjectSegmentationResultESaIS3_EE
FNF:22
FNH:2
BRDA:29,4294967295,1,-
BRDA:29,4294967295,2,-
BRDA:29,0,4,-
BRDA:29,0,5,-
BRDA:29,1,7,-
BRDA:29,1,8,-
BRDA:29,2,10,-
BRDA:29,2,11,-
BRDA:29,3,13,-
BRDA:29,3,14,-
BRDA:29,4,16,-
BRDA:29,4,17,-
BRDA:29,5,19,-
BRDA:29,5,20,-
BRDA:29,6,22,-
BRDA:29,6,23,-
BRDA:29,7,25,-
BRDA:29,7,26,-
BRDA:29,8,28,-
BRDA:29,8,29,-
BRDA:29,9,31,-
BRDA:29,9,32,-
BRDA:29,10,34,-
BRDA:29,10,35,-
BRDA:29,11,37,-
BRDA:29,11,38,-
BRDA:29,12,40,-
BRDA:29,12,41,-
BRDA:29,13,43,-
BRDA:29,13,44,-
BRDA:29,14,46,-
BRDA:29,14,47,-
BRDA:29,15,49,-
BRDA:29,15,50,-
BRDA:29,16,52,-
BRDA:29,16,53,-
BRDA:29,17,55,-
BRDA:29,17,56,-
BRDA:29,18,58,-
BRDA:29,18,59,-
BRDA:29,19,61,-
BRDA:29,19,62,-
BRDA:29,20,64,-
BRDA:29,20,65,-
BRDA:29,21,67,-
BRDA:29,21,68,-
BRDA:29,24,69,-
BRDA:29,24,70,-
BRDA:29,24,71,-
BRDA:29,24,72,-
BRDA:31,0,1,-
BRDA:31,0,2,-
BRDA:37,0,2,-
BRDA:37,0,3,-
BRDA:38,4294967295,0,-
BRDA:38,4294967295,1,-
BRDA:53,0,0,-
BRDA:53,0,1,-
BRDA:61,0,1,-
BRDA:61,0,2,-
BRDA:68,0,0,-
BRDA:68,0,1,-
BRDA:72,4294967295,1,-
BRDA:72,4294967295,2,-
BRDA:72,0,4,-
BRDA:72,0,5,-
BRDA:79,0,0,-
BRDA:79,0,1,-
BRDA:84,0,1,-
BRDA:84,0,2,-
BRDA:84,1,4,-
BRDA:84,1,5,-
BRDA:84,2,7,-
BRDA:84,2,8,-
BRDA:84,3,10,-
BRDA:84,3,11,-
BRDA:91,0,0,-
BRDA:91,0,1,-
BRDA:95,4294967295,1,-
BRDA:95,4294967295,2,-
BRDA:95,0,4,-
BRDA:95,0,5,-
BRDA:102,0,0,-
BRDA:102,0,1,-
BRDA:106,0,0,-
BRDA:106,0,1,-
BRDA:107,0,1,-
BRDA:107,0,2,-
BRDA:115,0,0,-
BRDA:115,0,1,-
BRDA:118,4294967295,0,-
BRDA:118,4294967295,1,-
BRDA:122,4294967295,1,-
BRDA:122,4294967295,2,-
BRDA:122,0,4,-
BRDA:122,0,5,-
BRDA:129,0,0,-
BRDA:129,0,1,-
BRDA:133,4294967295,1,-
BRDA:133,4294967295,2,-
BRDA:133,0,4,-
BRDA:133,0,5,-
BRDA:141,0,0,-
BRDA:141,0,1,-
BRDA:143,4294967295,0,-
BRDA:143,4294967295,1,-
BRDA:144,0,1,-
BRDA:144,0,2,-
BRDA:146,0,1,-
BRDA:146,0,2,-
BRDA:155,0,0,-
BRDA:155,0,1,-
BRDA:156,0,0,-
BRDA:156,0,1,-
BRDA:157,0,0,-
BRDA:157,0,1,-
BRDA:158,0,0,-
BRDA:158,0,1,-
BRDA:164,0,1,-
BRDA:164,0,2,-
BRDA:171,0,0,-
BRDA:171,0,1,-
BRDA:176,4294967295,0,-
BRDA:176,4294967295,1,-
BRDA:178,0,1,-
BRDA:178,0,2,-
BRDA:182,4294967295,1,-
BRDA:182,4294967295,2,-
BRDA:182,0,4,-
BRDA:182,0,5,-
BRDA:190,0,0,-
BRDA:190,0,1,-
BRDA:195,4294967295,0,-
BRDA:195,4294967295,1,-
BRDA:197,0,1,-
BRDA:197,0,2,-
BRDA:206,0,0,-
BRDA:206,0,1,-
BRDA:211,4294967295,0,-
BRDA:211,4294967295,1,-
BRDA:213,0,1,-
BRDA:213,0,2,-
BRDA:217,4294967295,1,-
BRDA:217,4294967295,2,-
BRDA:217,0,4,-
BRDA:217,0,5,-
BRDA:224,0,0,-
BRDA:224,0,1,-
BRDA:229,0,1,-
BRDA:229,0,2,-
BRDA:237,0,0,-
BRDA:237,0,1,-
BRDA:242,0,1,-
BRDA:242,0,2,-
BRDA:246,0,0,-
BRDA:246,0,1,-
BRDA:260,0,1,-
BRDA:260,0,2,-
BRDA:262,0,1,-
BRDA:262,0,2,-
BRDA:262,1,4,-
BRDA:262,1,5,-
BRDA:286,0,0,-
BRDA:286,0,1,-
BRDA:300,4294967295,1,-
BRDA:300,4294967295,2,-
BRDA:300,0,4,-
BRDA:300,0,5,-
BRDA:301,4294967295,1,-
BRDA:301,4294967295,2,-
BRDA:301,0,4,-
BRDA:301,0,5,-
BRDA:302,4294967295,1,-
BRDA:302,4294967295,2,-
BRDA:302,0,4,-
BRDA:302,0,5,-
BRDA:303,4294967295,1,-
BRDA:303,4294967295,2,-
BRDA:303,0,4,-
BRDA:303,0,5,-
BRDA:309,0,2,-
BRDA:309,0,3,-
BRDA:309,1,4,-
BRDA:309,1,5,-
BRDA:312,0,1,-
BRDA:312,0,2,-
BRDA:313,0,1,-
BRDA:313,0,2,-
BRDA:316,0,0,-
BRDA:316,0,1,-
BRDA:318,0,1,-
BRDA:318,0,2,-
BRDA:320,0,1,-
BRDA:320,0,2,-
BRDA:322,0,1,-
BRDA:322,0,2,-
BRDA:325,0,1,-
BRDA:325,0,2,-
BRDA:328,0,1,-
BRDA:328,0,2,-
BRDA:329,0,1,-
BRDA:329,0,2,-
BRDA:331,0,0,-
BRDA:331,0,1,-
BRDA:332,0,1,-
BRDA:332,0,2,-
BRDA:343,3,1,20
BRDA:343,3,2,0
BRDA:343,4,3,20
BRDA:343,4,4,0
BRF:210
BRH:2
DA:28,0
DA:29,0
DA:31,0
DA:32,0
DA:34,0
DA:37,0
DA:38,0
DA:39,0
DA:40,0
DA:41,0
DA:42,0
DA:43,0
DA:44,0
DA:45,0
DA:46,0
DA:48,0
DA:50,0
DA:53,0
DA:58,0
DA:61,0
DA:62,0
DA:65,0
DA:68,0
DA:70,0
DA:71,0
DA:72,0
DA:74,0
DA:76,0
DA:79,0
DA:81,0
DA:82,0
DA:83,0
DA:84,0
DA:86,0
DA:88,0
DA:91,0
DA:93,0
DA:94,0
DA:95,0
DA:97,0
DA:99,0
DA:102,0
DA:104,0
DA:105,0
DA:106,0
DA:107,0
DA:110,0
DA:112,0
DA:115,0
DA:117,0
DA:118,0
DA:119,0
DA:121,0
DA:122,0
DA:124,0
DA:126,0
DA:129,0
DA:131,0
DA:132,0
DA:133,0
DA:135,0
DA:137,0
DA:141,0
DA:143,0
DA:144,0
DA:146,0
DA:150,0
DA:151,0
DA:152,0
DA:153,0
DA:155,0
DA:156,0
DA:157,0
DA:158,0
DA:159,0
DA:160,0
DA:164,0
DA:166,0
DA:168,0
DA:171,0
DA:173,0
DA:174,0
DA:175,0
DA:176,0
DA:177,0
DA:178,0
DA:179,0
DA:181,0
DA:182,0
DA:184,0
DA:185,0
DA:187,0
DA:190,0
DA:192,0
DA:193,0
DA:194,0
DA:195,0
DA:196,0
DA:197,0
DA:198,0
DA:201,0
DA:203,0
DA:206,0
DA:208,0
DA:209,0
DA:210,0
DA:211,0
DA:212,0
DA:213,0
DA:214,0
DA:216,0
DA:217,0
DA:219,0
DA:221,0
DA:224,0
DA:226,0
DA:227,0
DA:228,0
DA:229,0
DA:230,0
DA:232,0
DA:234,0
DA:237,0
DA:239,0
DA:240,0
DA:241,0
DA:242,0
DA:243,0
DA:245,0
DA:246,0
DA:247,0
DA:250,0
DA:252,0
DA:256,0
DA:257,0
DA:258,0
DA:259,0
DA:260,0
DA:261,0
DA:262,0
DA:264,0
DA:265,0
DA:266,0
DA:267,0
DA:268,0
DA:271,0
DA:273,0
DA:274,0
DA:275,0
DA:276,0
DA:277,0
DA:278,0
DA:279,0
DA:280,0
DA:283,0
DA:286,0
DA:289,0
DA:290,0
DA:291,0
DA:292,0
DA:293,0
DA:295,0
DA:296,0
DA:298,0
DA:299,0
DA:300,0
DA:301,0
DA:302,0
DA:303,0
DA:305,0
DA:307,0
DA:309,0
DA:310,0
DA:311,0
DA:312,0
DA:313,0
DA:314,0
DA:316,0
DA:317,0
DA:318,0
DA:320,0
DA:322,0
DA:325,0
DA:328,0
DA:329,0
DA:331,0
DA:332,0
DA:336,0
DA:338,0
DA:340,0
DA:341,0
DA:342,0
DA:343,80
LF:193
LH:1
end_of_record
TN:
SF:/home/intel/ros2_overlay_ws/src/ros2_openvino_toolkit/dynamic_vino_lib/src/outputs/ros_service_output.cpp
FN:104,_Z41__static_initialization_and_destruction_0ii
FN:104,_GLOBAL__sub_I_ros_service_output.cpp
FNDA:0,_ZN7Outputs16RosServiceOutput18setResponseForFaceESt10shared_ptrIN11object_msgs3srv22DetectObject_Response_ISaIvEEEE
FNDA:0,_ZN7Outputs16RosServiceOutput18setServiceResponseESt10shared_ptrIN11people_msgs3srv22AgeGenderSrv_Response_ISaIvEEEE
FNDA:20,_GLOBAL__sub_I_ros_service_output.cpp
FNDA:0,_ZN7Outputs16RosServiceOutput18setServiceResponseESt10shared_ptrIN11people_msgs3srv20EmotionSrv_Response_ISaIvEEEE
FNDA:4,_ZN7Outputs16RosServiceOutput9clearDataEv
FNDA:2,_ZN7Outputs16RosServiceOutput18setServiceResponseESt10shared_ptrIN11people_msgs3srv16People_Response_ISaIvEEEE
FNDA:20,_Z41__static_initialization_and_destruction_0ii
FNDA:0,_ZN7Outputs16RosServiceOutput18setServiceResponseESt10shared_ptrIN11people_msgs3srv21HeadPoseSrv_Response_ISaIvEEEE
FNDA:2,_ZN7Outputs16RosServiceOutput18setServiceResponseESt10shared_ptrIN11object_msgs3srv22DetectObject_Response_ISaIvEEEE
FNF:9
FNH:5
BRDA:32,0,0,2
BRDA:32,0,1,0
BRDA:32,1,2,2
BRDA:32,1,3,0
BRDA:34,0,0,-
BRDA:34,0,1,-
BRDA:34,1,2,-
BRDA:34,1,3,-
BRDA:42,0,0,-
BRDA:42,0,1,-
BRDA:42,1,2,-
BRDA:42,1,3,-
BRDA:50,0,0,-
BRDA:50,0,1,-
BRDA:58,0,0,-
BRDA:58,0,1,-
BRDA:66,0,0,-
BRDA:66,0,1,-
BRDA:75,4294967295,0,0
BRDA:75,4294967295,1,2
BRDA:78,0,0,2
BRDA:78,0,1,0
BRDA:82,0,0,2
BRDA:82,0,1,0
BRDA:86,0,0,2
BRDA:86,0,1,0
BRDA:90,0,0,2
BRDA:90,0,1,0
BRDA:104,3,1,20
BRDA:104,3,2,0
BRDA:104,4,3,20
BRDA:104,4,4,0
BRF:32
BRH:9
DA:29,2
DA:32,2
DA:33,2
DA:34,0
DA:35,0
DA:37,2
DA:39,0
DA:42,0
DA:43,0
DA:45,0
DA:47,0
DA:50,0
DA:51,0
DA:53,0
DA:55,0
DA:58,0
DA:59,0
DA:61,0
DA:63,0
DA:66,0
DA:67,0
DA:69,0
DA:71,2
DA:74,2
DA:75,2
DA:76,0
DA:77,0
DA:78,2
DA:79,2
DA:80,2
DA:82,2
DA:83,2
DA:84,2
DA:86,2
DA:87,2
DA:88,2
DA:90,2
DA:91,2
DA:92,2
DA:94,2
DA:95,2
DA:97,4
DA:104,80
LF:43
LH:23
end_of_record
TN:
SF:/home/intel/ros2_overlay_ws/src/ros2_openvino_toolkit/dynamic_vino_lib/src/outputs/ros_topic_output.cpp
FN:77,_ZN7Outputs14RosTopicOutput9feedFrameERKN2cv3MatE
FN:395,_Z41__static_initialization_and_destruction_0ii
FN:395,_GLOBAL__sub_I_ros_topic_output.cpp
FNDA:0,_ZN7Outputs14RosTopicOutput6acceptERKSt6vectorIN16dynamic_vino_lib28PersonReidentificationResultESaIS3_EE
FNDA:4,_ZN7Outputs14RosTopicOutput6acceptERKSt6vectorIN16dynamic_vino_lib21ObjectDetectionResultESaIS3_EE
FNDA:20,_Z41__static_initialization_and_destruction_0ii
FNDA:0,_ZN7Outputs14RosTopicOutput6acceptERKSt6vectorIN16dynamic_vino_lib27LicensePlateDetectionResultESaIS3_EE
FNDA:2,_ZN7Outputs14RosTopicOutput6acceptERKSt6vectorIN16dynamic_vino_lib15AgeGenderResultESaIS3_EE
FNDA:2,_ZN7Outputs14RosTopicOutput6acceptERKSt6vectorIN16dynamic_vino_lib14HeadPoseResultESaIS3_EE
FNDA:0,_ZN7Outputs14RosTopicOutput6acceptERKSt6vectorIN16dynamic_vino_lib26FaceReidentificationResultESaIS3_EE
FNDA:4,_ZN7Outputs14RosTopicOutput9feedFrameERKN2cv3MatE
FNDA:0,_ZN7Outputs14RosTopicOutput12handleOutputEv
FNDA:20,_GLOBAL__sub_I_ros_topic_output.cpp
FNDA:2,_ZN7Outputs14RosTopicOutput6acceptERKSt6vectorIN16dynamic_vino_lib14EmotionsResultESaIS3_EE
FNDA:0,_ZN7Outputs14RosTopicOutput6acceptERKSt6vectorIN16dynamic_vino_lib28PersonAttribsDetectionResultESaIS3_EE
FNDA:0,_ZN7Outputs14RosTopicOutput6acceptERKSt6vectorIN16dynamic_vino_lib24LandmarksDetectionResultESaIS3_EE
FNDA:0,_ZN7Outputs14RosTopicOutput6acceptERKSt6vectorIN16dynamic_vino_lib24ObjectSegmentationResultESaIS3_EE
FNDA:0,_ZN7Outputs14RosTopicOutput6acceptERKSt6vectorIN16dynamic_vino_lib29VehicleAttribsDetectionResultESaIS3_EE
FNDA:0,_ZN7Outputs14RosTopicOutput6acceptERKSt6vectorIN16dynamic_vino_lib19FaceDetectionResultESaIS3_EE
FNDA:10,_ZN7Outputs14RosTopicOutputC2ENSt7__cxx1112basic_stringIcSt11char_traitsIcESaIcEEE
FNDA:0,_ZN7Outputs14RosTopicOutput9getHeaderEv
FNF:18
FNH:8
BRDA:29,4294967295,1,10
BRDA:29,4294967295,2,0
BRDA:35,0,1,10
BRDA:35,0,2,0
BRDA:36,0,1,10
BRDA:36,0,2,0
BRDA:36,1,4,10
BRDA:36,1,5,0
BRDA:37,0,1,10
BRDA:37,0,2,0
BRDA:37,1,4,10
BRDA:37,1,5,0
BRDA:38,4294967295,1,10
BRDA:38,4294967295,2,0
BRDA:38,0,4,10
BRDA:38,0,5,0
BRDA:39,0,1,10
BRDA:39,0,2,0
BRDA:39,1,4,10
BRDA:39,1,5,0
BRDA:40,4294967295,1,10
BRDA:40,4294967295,2,0
BRDA:40,0,4,10
BRDA:40,0,5,0
BRDA:41,0,1,10
BRDA:41,0,2,0
BRDA:41,1,4,10
BRDA:41,1,5,0
BRDA:42,4294967295,1,10
BRDA:42,4294967295,2,0
BRDA:42,0,4,10
BRDA:42,0,5,0
BRDA:43,0,1,10
BRDA:43,0,2,0
BRDA:43,1,4,10
BRDA:43,1,5,0
BRDA:44,4294967295,1,10
BRDA:44,4294967295,2,0
BRDA:44,0,4,10
BRDA:44,0,5,0
BRDA:45,0,1,10
BRDA:45,0,2,0
BRDA:45,1,4,10
BRDA:45,1,5,0
BRDA:46,4294967295,1,10
BRDA:46,4294967295,2,0
BRDA:46,0,4,10
BRDA:46,0,5,0
BRDA:47,0,1,10
BRDA:47,0,2,0
BRDA:47,1,4,10
BRDA:47,1,5,0
BRDA:48,4294967295,1,10
BRDA:48,4294967295,2,0
BRDA:48,0,4,10
BRDA:48,0,5,0
BRDA:49,0,1,10
BRDA:49,0,2,0
BRDA:49,1,4,10
BRDA:49,1,5,0
BRDA:50,4294967295,1,10
BRDA:50,4294967295,2,0
BRDA:50,0,4,10
BRDA:50,0,5,0
BRDA:51,0,1,10
BRDA:51,0,2,0
BRDA:51,1,4,10
BRDA:51,1,5,0
BRDA:53,4294967295,1,10
BRDA:53,4294967295,2,0
BRDA:53,0,4,10
BRDA:53,0,5,0
BRDA:54,0,1,10
BRDA:54,0,2,0
BRDA:54,1,4,10
BRDA:54,1,5,0
BRDA:56,4294967295,1,10
BRDA:56,4294967295,2,0
BRDA:56,0,4,10
BRDA:56,0,5,0
BRDA:57,0,1,10
BRDA:57,0,2,0
BRDA:57,1,4,10
BRDA:57,1,5,0
BRDA:58,4294967295,1,10
BRDA:58,4294967295,2,0
BRDA:58,0,4,10
BRDA:58,0,5,0
BRDA:59,0,1,10
BRDA:59,0,2,0
BRDA:59,1,4,10
BRDA:59,1,5,0
BRDA:61,4294967295,1,10
BRDA:61,4294967295,2,0
BRDA:61,0,4,10
BRDA:61,0,5,0
BRDA:62,0,1,10
BRDA:62,0,2,0
BRDA:62,1,4,10
BRDA:62,1,5,0
BRDA:79,0,2,4
BRDA:79,0,3,0
BRDA:87,0,0,-
BRDA:87,0,1,-
BRDA:96,0,1,-
BRDA:96,0,2,-
BRDA:105,0,0,-
BRDA:105,0,1,-
BRDA:113,0,1,-
BRDA:113,0,2,-
BRDA:122,0,0,-
BRDA:122,0,1,-
BRDA:130,0,1,-
BRDA:130,0,2,-
BRDA:139,1,0,-
BRDA:139,1,1,-
BRDA:147,0,0,-
BRDA:147,0,1,-
BRDA:151,0,1,-
BRDA:151,0,2,-
BRDA:153,0,1,-
BRDA:153,0,2,-
BRDA:162,0,0,-
BRDA:162,0,1,-
BRDA:170,0,1,-
BRDA:170,0,2,-
BRDA:179,0,0,-
BRDA:179,0,1,-
BRDA:187,0,1,-
BRDA:187,0,2,-
BRDA:196,0,0,-
BRDA:196,0,1,-
BRDA:206,0,0,-
BRDA:206,0,1,-
BRDA:207,0,0,-
BRDA:207,0,1,-
BRDA:208,0,1,-
BRDA:208,0,2,-
BRDA:211,0,1,-
BRDA:211,0,2,-
BRDA:220,0,0,22
BRDA:220,0,1,4
BRDA:229,0,1,22
BRDA:229,0,2,0
BRDA:239,0,0,-
BRDA:239,0,1,-
BRDA:248,0,1,-
BRDA:248,0,2,-
BRDA:249,0,1,-
BRDA:249,0,2,-
BRDA:258,0,0,16
BRDA:258,0,1,2
BRDA:258,1,3,16
BRDA:258,1,4,0
BRDA:266,0,1,16
BRDA:266,0,2,0
BRDA:275,0,0,16
BRDA:275,0,1,2
BRDA:284,0,0,12
BRDA:284,0,1,4
BRDA:291,0,1,16
BRDA:291,0,2,0
BRDA:300,1,0,16
BRDA:300,1,1,2
BRDA:316,4294967295,0,-
BRDA:316,4294967295,1,-
BRDA:319,0,1,-
BRDA:319,0,2,-
BRDA:322,0,0,-
BRDA:322,0,1,-
BRDA:325,0,1,-
BRDA:325,0,2,-
BRDA:328,0,0,-
BRDA:328,0,1,-
BRDA:331,0,1,-
BRDA:331,0,2,-
BRDA:334,0,0,-
BRDA:334,0,1,-
BRDA:337,0,1,-
BRDA:337,0,2,-
BRDA:340,0,0,-
BRDA:340,0,1,-
BRDA:343,0,1,-
BRDA:343,0,2,-
BRDA:346,0,0,-
BRDA:346,0,1,-
BRDA:349,0,1,-
BRDA:349,0,2,-
BRDA:352,0,0,-
BRDA:352,0,1,-
BRDA:355,0,1,-
BRDA:355,0,2,-
BRDA:358,0,0,-
BRDA:358,0,1,-
BRDA:361,0,1,-
BRDA:361,0,2,-
BRDA:364,0,0,-
BRDA:364,0,1,-
BRDA:367,0,1,-
BRDA:367,0,2,-
BRDA:370,0,0,-
BRDA:370,0,1,-
BRDA:373,0,1,-
BRDA:373,0,2,-
BRDA:376,0,0,-
BRDA:376,0,1,-
BRDA:379,0,1,-
BRDA:379,0,2,-
BRDA:382,0,0,-
BRDA:382,0,1,-
BRDA:384,0,1,-
BRDA:384,0,2,-
BRDA:395,3,1,20
BRDA:395,3,2,0
BRDA:395,4,3,20
BRDA:395,4,4,0
BRF:216
BRH:67
DA:28,10
DA:29,10
DA:35,10
DA:36,30
DA:37,10
DA:38,30
DA:39,10
DA:40,30
DA:41,10
DA:42,30
DA:43,10
DA:44,30
DA:45,10
DA:46,30
DA:47,10
DA:48,30
DA:49,10
DA:50,30
DA:51,10
DA:53,30
DA:54,10
DA:56,30
DA:57,10
DA:58,30
DA:59,10
DA:61,30
DA:62,10
DA:75,10
DA:77,4
DA:79,4
DA:80,4
DA:82,0
DA:85,0
DA:86,0
DA:87,0
DA:90,0
DA:91,0
DA:92,0
DA:93,0
DA:94,0
DA:95,0
DA:96,0
DA:98,0
DA:100,0
DA:103,0
DA:104,0
DA:105,0
DA:108,0
DA:109,0
DA:110,0
DA:111,0
DA:112,0
DA:113,0
DA:115,0
DA:117,0
DA:120,0
DA:121,0
DA:122,0
DA:125,0
DA:126,0
DA:127,0
DA:128,0
DA:129,0
DA:130,0
DA:132,0
DA:134,0
DA:137,0
DA:139,0
DA:142,0
DA:143,0
DA:144,0
DA:145,0
DA:147,0
DA:149,0
DA:150,0
DA:151,0
DA:153,0
DA:155,0
DA:157,0
DA:160,0
DA:161,0
DA:162,0
DA:165,0
DA:166,0
DA:167,0
DA:168,0
DA:169,0
DA:170,0
DA:172,0
DA:174,0
DA:177,0
DA:178,0
DA:179,0
DA:182,0
DA:183,0
DA:184,0
DA:185,0
DA:186,0
DA:187,0
DA:189,0
DA:191,0
DA:194,0
DA:195,0
DA:196,0
DA:199,0
DA:200,0
DA:201,0
DA:202,0
DA:203,0
DA:204,0
DA:205,0
DA:206,0
DA:207,0
DA:208,0
DA:211,0
DA:213,0
DA:215,4
DA:218,4
DA:220,26
DA:223,22
DA:224,22
DA:225,22
DA:226,22
DA:227,22
DA:228,22
DA:229,22
DA:231,4
DA:233,0
DA:236,0
DA:239,0
DA:242,0
DA:243,0
DA:244,0
DA:245,0
DA:246,0
DA:247,0
DA:248,0
DA:249,0
DA:251,0
DA:253,2
DA:255,2
DA:257,2
DA:258,18
DA:261,16
DA:262,16
DA:263,16
DA:264,16
DA:265,16
DA:266,16
DA:268,2
DA:270,2
DA:272,2
DA:274,2
DA:275,18
DA:278,16
DA:279,16
DA:280,16
DA:281,16
DA:282,16
DA:284,16
DA:286,12
DA:289,4
DA:291,16
DA:293,2
DA:295,2
DA:297,2
DA:300,18
DA:302,16
DA:303,16
DA:304,16
DA:305,16
DA:306,16
DA:307,16
DA:308,16
DA:309,16
DA:311,2
DA:313,0
DA:315,0
DA:316,0
DA:319,0
DA:322,0
DA:325,0
DA:328,0
DA:331,0
DA:334,0
DA:337,0
DA:340,0
DA:343,0
DA:346,0
DA:349,0
DA:352,0
DA:355,0
DA:358,0
DA:361,0
DA:364,0
DA:367,0
DA:370,0
DA:373,0
DA:376,0
DA:379,0
DA:382,0
DA:384,0
DA:387,0
DA:392,0
DA:394,0
DA:395,80
LF:206
LH:80
end_of_record
TN:
SF:/home/intel/ros2_overlay_ws/src/ros2_openvino_toolkit/dynamic_vino_lib/src/outputs/rviz_output.cpp
FN:114,_GLOBAL__sub_I_rviz_output.cpp
FN:114,_Z41__static_initialization_and_destruction_0ii
FNDA:0,_ZN7Outputs10RvizOutputC2ENSt7__cxx1112basic_stringIcSt11char_traitsIcESaIcEEE
FNDA:0,_ZN7Outputs10RvizOutput6acceptERKSt6vectorIN16dynamic_vino_lib24LandmarksDetectionResultESaIS3_EE
FNDA:0,_ZN7Outputs10RvizOutput6acceptERKSt6vectorIN16dynamic_vino_lib14EmotionsResultESaIS3_EE
FNDA:0,_ZN7Outputs10RvizOutput9getHeaderEv
FNDA:20,_Z41__static_initialization_and_destruction_0ii
FNDA:20,_GLOBAL__sub_I_rviz_output.cpp
FNDA:0,_ZN7Outputs10RvizOutput12handleOutputEv
FNDA:0,_ZN7Outputs10RvizOutput6acceptERKSt6vectorIN16dynamic_vino_lib28PersonReidentificationResultESaIS3_EE
FNDA:0,_ZN7Outputs10RvizOutput6acceptERKSt6vectorIN16dynamic_vino_lib19FaceDetectionResultESaIS3_EE
FNDA:0,_ZN7Outputs10RvizOutput6acceptERKSt6vectorIN16dynamic_vino_lib21ObjectDetectionResultESaIS3_EE
FNDA:0,_ZN7Outputs10RvizOutput9feedFrameERKN2cv3MatE
FNDA:0,_ZN7Outputs10RvizOutput6acceptERKSt6vectorIN16dynamic_vino_lib28PersonAttribsDetectionResultESaIS3_EE
FNDA:0,_ZN7Outputs10RvizOutput6acceptERKSt6vectorIN16dynamic_vino_lib24ObjectSegmentationResultESaIS3_EE
FNDA:0,_ZN7Outputs10RvizOutput6acceptERKSt6vectorIN16dynamic_vino_lib26FaceReidentificationResultESaIS3_EE
FNDA:0,_ZN7Outputs10RvizOutput6acceptERKSt6vectorIN16dynamic_vino_lib15AgeGenderResultESaIS3_EE
FNDA:0,_ZN7Outputs10RvizOutput6acceptERKSt6vectorIN16dynamic_vino_lib14HeadPoseResultESaIS3_EE
FNF:16
FNH:2
BRDA:29,4294967295,1,-
BRDA:29,4294967295,2,-
BRDA:31,0,1,-
BRDA:31,0,2,-
BRDA:33,0,1,-
BRDA:33,0,2,-
BRDA:33,1,4,-
BRDA:33,1,5,-
BRDA:34,0,1,-
BRDA:34,0,2,-
BRDA:34,1,4,-
BRDA:34,1,5,-
BRDA:104,4294967295,1,-
BRDA:104,4294967295,2,-
BRDA:107,0,1,-
BRDA:107,0,2,-
BRDA:108,0,1,-
BRDA:108,0,2,-
BRDA:114,3,1,20
BRDA:114,3,2,0
BRDA:114,4,3,20
BRDA:114,4,4,0
BRF:22
BRH:2
DA:28,0
DA:29,0
DA:31,0
DA:33,0
DA:34,0
DA:35,0
DA:36,0
DA:38,0
DA:40,0
DA:41,0
DA:43,0
DA:46,0
DA:47,0
DA:49,0
DA:52,0
DA:53,0
DA:55,0
DA:58,0
DA:59,0
DA:61,0
DA:64,0
DA:65,0
DA:67,0
DA:69,0
DA:70,0
DA:72,0
DA:75,0
DA:76,0
DA:78,0
DA:81,0
DA:82,0
DA:84,0
DA:86,0
DA:87,0
DA:89,0
DA:91,0
DA:92,0
DA:94,0
DA:96,0
DA:97,0
DA:99,0
DA:101,0
DA:102,0
DA:103,0
DA:104,0
DA:107,0
DA:108,0
DA:109,0
DA:111,0
DA:113,0
DA:114,80
LF:51
LH:1
end_of_record
TN:
SF:/home/intel/ros2_overlay_ws/src/ros2_openvino_toolkit/dynamic_vino_lib/src/pipeline.cpp
FN:71,_ZN8Pipeline3addERKNSt7__cxx1112basic_stringIcSt11char_traitsIcESaIcEEES7_
FN:102,_ZN8Pipeline10addConnectERKNSt7__cxx1112basic_stringIcSt11char_traitsIcESaIcEEES7_
FN:160,_ZN8Pipeline14isLegalConnectENSt7__cxx1112basic_stringIcSt11char_traitsIcESaIcEEES5_
FN:171,_ZN8Pipeline16getCatagoryOrderENSt7__cxx1112basic_stringIcSt11char_traitsIcESaIcEEE
FN:224,_ZN8Pipeline13printPipelineEv
FN:294,_ZN8Pipeline20initInferenceCounterEv
FN:301,_ZN8Pipeline24increaseInferenceCounterEv
FN:308,_ZN8Pipeline24decreaseInferenceCounterEv
FN:315,_ZN8Pipeline8countFPSEv
FN:326,_GLOBAL__sub_I_pipeline.cpp
FN:326,_Z41__static_initialization_and_destruction_0ii
FNDA:28,_ZN8Pipeline14isLegalConnectENSt7__cxx1112basic_stringIcSt11char_traitsIcESaIcEEES5_
FNDA:4,_ZN8Pipeline7runOnceEv
FNDA:20,_GLOBAL__sub_I_pipeline.cpp
FNDA:10,_ZN8Pipeline3addERKNSt7__cxx1112basic_stringIcSt11char_traitsIcESaIcEEESt10shared_ptrIN5Input15BaseInputDeviceEE
FNDA:10,_ZN8Pipeline3addERKNSt7__cxx1112basic_stringIcSt11char_traitsIcESaIcEEESt10shared_ptrIN7Outputs10BaseOutputEE
FNDA:5,_ZN8Pipeline11setCallbackEv
FNDA:10,_ZN8PipelineC2ERKNSt7__cxx1112basic_stringIcSt11char_traitsIcESaIcEEE
FNDA:10,_ZN8Pipeline24increaseInferenceCounterEv
FNDA:0,_ZN8Pipeline3addERKNSt7__cxx1112basic_stringIcSt11char_traitsIcESaIcEEES7_St10shared_ptrIN16dynamic_vino_lib13BaseInferenceEE
FNDA:10,_ZN8Pipeline24decreaseInferenceCounterEv
FNDA:20,_Z41__static_initialization_and_destruction_0ii
FNDA:28,_ZN8Pipeline3addERKNSt7__cxx1112basic_stringIcSt11char_traitsIcESaIcEEES7_
FNDA:0,_ZN8Pipeline3addERKNSt7__cxx1112basic_stringIcSt11char_traitsIcESaIcEEES7_St10shared_ptrIN7Outputs10BaseOutputEE
FNDA:56,_ZN8Pipeline16getCatagoryOrderENSt7__cxx1112basic_stringIcSt11char_traitsIcESaIcEEE
FNDA:5,_ZN8Pipeline13printPipelineEv
FNDA:4,_ZN8Pipeline20initInferenceCounterEv
FNDA:14,_ZN8Pipeline3addERKNSt7__cxx1112basic_stringIcSt11char_traitsIcESaIcEEESt10shared_ptrIN16dynamic_vino_lib13BaseInferenceEE
FNDA:4,_ZN8Pipeline8countFPSEv
FNDA:38,_ZN8Pipeline10addConnectERKNSt7__cxx1112basic_stringIcSt11char_traitsIcESaIcEEES7_
FNDA:10,_ZN8Pipeline8callbackERKNSt7__cxx1112basic_stringIcSt11char_traitsIcESaIcEEE
FNF:20
FNH:18
BRDA:33,4294967295,0,10
BRDA:33,4294967295,1,0
BRDA:41,0,0,0
BRDA:41,0,1,10
BRDA:49,4294967295,1,10
BRDA:49,4294967295,2,0
BRDA:49,0,4,10
BRDA:49,0,5,0
BRDA:57,0,0,-
BRDA:57,0,1,-
BRDA:57,1,2,-
BRDA:57,1,3,-
BRDA:57,2,5,-
BRDA:57,2,6,-
BRDA:57,3,7,-
BRDA:57,3,8,-
BRDA:57,4,9,-
BRDA:57,4,10,-
BRDA:57,6,11,-
BRDA:57,6,12,-
BRDA:57,7,13,-
BRDA:57,7,14,-
BRDA:57,8,15,-
BRDA:57,8,16,-
BRDA:57,8,17,-
BRDA:57,8,18,-
BRDA:62,4294967295,1,-
BRDA:62,4294967295,2,-
BRDA:62,0,3,-
BRDA:62,0,4,-
BRDA:73,0,1,28
BRDA:73,0,2,0
BRDA:73,1,3,28
BRDA:73,1,4,0
BRDA:83,0,0,0
BRDA:83,0,1,10
BRDA:90,4294967295,0,0
BRDA:90,4294967295,1,10
BRDA:109,0,0,18
BRDA:109,0,1,38
BRDA:110,0,0,0
BRDA:110,0,1,18
BRDA:125,0,0,-
BRDA:125,0,1,-
BRDA:125,1,2,-
BRDA:125,1,3,-
BRDA:125,2,5,-
BRDA:125,2,6,-
BRDA:125,3,7,-
BRDA:125,3,8,-
BRDA:125,5,9,-
BRDA:125,5,10,-
BRDA:125,6,11,-
BRDA:125,6,12,-
BRDA:125,7,13,-
BRDA:125,7,14,-
BRDA:125,7,15,-
BRDA:125,7,16,-
BRDA:130,4294967295,1,-
BRDA:130,4294967295,2,-
BRDA:130,0,3,-
BRDA:130,0,4,-
BRDA:142,0,0,0
BRDA:142,0,1,14
BRDA:149,4294967295,0,0
BRDA:149,4294967295,1,14
BRDA:162,4294967295,1,28
BRDA:162,4294967295,2,0
BRDA:163,4294967295,1,28
BRDA:163,4294967295,2,0
BRDA:167,4294967295,0,28
BRDA:167,4294967295,1,0
BRDA:167,0,2,28
BRDA:167,0,3,0
BRDA:167,1,4,0
BRDA:167,1,5,28
BRDA:174,0,0,5
BRDA:174,0,1,51
BRDA:176,4294967295,0,37
BRDA:176,4294967295,1,14
BRDA:178,4294967295,0,14
BRDA:178,4294967295,1,0
BRDA:189,4294967295,1,4
BRDA:189,4294967295,2,0
BRDA:199,0,0,4
BRDA:199,0,1,4
BRDA:204,0,0,4
BRDA:204,0,1,4
BRDA:206,4294967295,1,4
BRDA:206,4294967295,2,0
BRDA:207,4294967295,1,4
BRDA:207,4294967295,2,0
BRDA:208,0,1,4
BRDA:208,0,2,0
BRDA:209,0,1,4
BRDA:209,0,2,0
BRDA:218,0,0,4
BRDA:218,0,1,4
BRDA:220,0,1,4
BRDA:220,0,2,0
BRDA:226,0,0,33
BRDA:226,0,1,5
BRDA:243,0,0,14
BRDA:243,0,1,5
BRDA:246,0,1,14
BRDA:246,0,2,0
BRDA:251,4294967295,1,14
BRDA:251,4294967295,2,0
BRDA:259,4294967295,1,10
BRDA:259,4294967295,2,0
BRDA:261,0,0,16
BRDA:261,0,1,10
BRDA:266,4294967295,0,10
BRDA:266,4294967295,1,6
BRDA:267,0,1,10
BRDA:267,0,2,0
BRDA:267,1,4,10
BRDA:267,1,5,0
BRDA:270,4294967295,0,6
BRDA:270,4294967295,1,0
BRDA:273,0,1,6
BRDA:273,0,2,0
BRDA:274,0,0,48
BRDA:274,0,1,6
BRDA:278,0,1,48
BRDA:278,0,2,0
BRDA:279,0,0,42
BRDA:279,0,1,6
BRDA:279,1,2,0
BRDA:279,1,3,42
BRDA:280,0,1,6
BRDA:280,0,2,0
BRDA:281,0,1,6
BRDA:281,0,2,0
BRDA:290,0,1,10
BRDA:290,0,2,0
BRDA:321,4294967295,0,4
BRDA:321,4294967295,1,0
BRDA:326,3,1,20
BRDA:326,3,2,0
BRDA:326,4,3,20
BRDA:326,4,4,0
BRF:142
BRH:62
DA:31,20
DA:33,10
DA:34,10
DA:37,10
DA:39,10
DA:41,10
DA:42,0
DA:43,0
DA:45,10
DA:46,10
DA:49,10
DA:50,10
DA:53,0
DA:57,0
DA:58,0
DA:59,0
DA:62,0
DA:63,0
DA:65,0
DA:71,28
DA:73,56
DA:74,28
DA:75,28
DA:81,10
DA:83,10
DA:84,0
DA:90,10
DA:91,0
DA:92,0
DA:94,10
DA:97,10
DA:102,38
DA:109,56
DA:110,18
DA:111,0
DA:116,38
DA:118,76
DA:121,0
DA:125,0
DA:126,0
DA:127,0
DA:130,0
DA:131,0
DA:132,0
DA:138,14
DA:142,14
DA:143,0
DA:149,14
DA:150,0
DA:151,0
DA:153,14
DA:155,14
DA:157,14
DA:160,28
DA:162,28
DA:163,28
DA:164,28
DA:165,28
DA:166,28
DA:167,28
DA:168,28
DA:171,56
DA:173,56
DA:174,56
DA:175,5
DA:176,51
DA:177,37
DA:178,14
DA:179,14
DA:182,56
DA:185,4
DA:187,4
DA:189,4
DA:192,4
DA:195,4
DA:196,4
DA:197,4
DA:199,8
DA:200,4
DA:203,4
DA:204,8
DA:206,4
DA:207,4
DA:208,4
DA:209,4
DA:212,4
DA:213,4
DA:215,4
DA:218,8
DA:220,4
DA:224,5
DA:226,38
DA:229,5
DA:231,5
DA:243,19
DA:246,14
DA:247,10
DA:248,10
DA:250,28
DA:251,14
DA:253,5
DA:255,10
DA:258,10
DA:259,10
DA:261,26
DA:266,16
DA:267,10
DA:270,6
DA:272,6
DA:273,12
DA:274,54
DA:276,48
DA:277,48
DA:278,48
DA:279,48
DA:280,6
DA:281,6
DA:282,6
DA:290,10
DA:291,10
DA:292,10
DA:294,4
DA:296,4
DA:298,4
DA:299,4
DA:301,10
DA:303,10
DA:306,10
DA:308,10
DA:310,10
DA:313,10
DA:315,4
DA:317,4
DA:318,4
DA:321,4
DA:322,4
DA:323,4
DA:324,4
DA:326,80
LF:139
LH:116
end_of_record
TN:
SF:/home/intel/ros2_overlay_ws/src/ros2_openvino_toolkit/dynamic_vino_lib/src/pipeline_manager.cpp
FN:244,_ZN15PipelineManager19createFaceDetectionERKN6Params12ParamManager16InferenceRawDataE
FN:436,_ZN15PipelineManager14threadPipelineEPKc
FN:491,_ZN15PipelineManager7stopAllEv
FN:503,_ZN15PipelineManager7joinAllEv
FN:519,_Z41__static_initialization_and_destruction_0ii
FN:519,_GLOBAL__sub_I_pipeline_manager.cpp
FNDA:3,_ZN15PipelineManager24createEmotionRecognitionERKN6Params12ParamManager16InferenceRawDataE
FNDA:0,_ZN15PipelineManager7stopAllEv
FNDA:0,_ZN15PipelineManager28createPersonAttribsDetectionERKN6Params12ParamManager16InferenceRawDataE
FNDA:3,_ZN15PipelineManager26createAgeGenderRecognitionERKN6Params12ParamManager16InferenceRawDataE
FNDA:3,_ZN15PipelineManager19createFaceDetectionERKN6Params12ParamManager16InferenceRawDataE
FNDA:0,_ZN15PipelineManager29createVehicleAttribsDetectionERKN6Params12ParamManager16InferenceRawDataE
FNDA:0,_ZN15PipelineManager15threadSpinNodesEPKc
FNDA:8,_ZN15PipelineManager21createObjectDetectionERKN6Params12ParamManager16InferenceRawDataE
FNDA:2,_ZN15PipelineManager24createObjectSegmentationERKN6Params12ParamManager16InferenceRawDataE
FNDA:0,_ZN15PipelineManager28createPersonReidentificationERKN6Params12ParamManager16InferenceRawDataE
FNDA:10,_ZN15PipelineManager11parseOutputB5cxx11ERKN6Params12ParamManager15PipelineRawDataE
FNDA:0,_ZN15PipelineManager14threadPipelineEPKc
FNDA:20,_GLOBAL__sub_I_pipeline_manager.cpp
FNDA:10,_ZN15PipelineManager14createPipelineERKN6Params12ParamManager15PipelineRawDataE
FNDA:0,_ZN15PipelineManager7joinAllEv
FNDA:20,_Z41__static_initialization_and_destruction_0ii
FNDA:10,_ZN15PipelineManager16parseInputDeviceB5cxx11ERKN6Params12ParamManager15PipelineRawDataE
FNDA:0,_ZN15PipelineManager6runAllEv
FNDA:0,_ZN15PipelineManager10runServiceEv
FNDA:0,_ZN15PipelineManager27createLicensePlateDetectionERKN6Params12ParamManager16InferenceRawDataE
FNDA:0,_ZN15PipelineManager26createFaceReidentificationERKN6Params12ParamManager16InferenceRawDataE
FNDA:10,_ZN15PipelineManager14parseInferenceB5cxx11ERKN6Params12ParamManager15PipelineRawDataE
FNDA:0,_ZN15PipelineManager24createLandmarksDetectionERKN6Params12ParamManager16InferenceRawDataE
FNDA:3,_ZN15PipelineManager24createHeadPoseEstimationERKN6Params12ParamManager16InferenceRawDataE
FNF:24
FNH:12
BRDA:69,4294967295,0,0
BRDA:69,4294967295,1,10
BRDA:70,0,2,-
BRDA:70,0,3,-
BRDA:75,4294967295,1,10
BRDA:75,4294967295,2,0
BRDA:77,0,1,10
BRDA:77,0,2,0
BRDA:78,0,0,0
BRDA:78,0,1,10
BRDA:79,0,1,-
BRDA:79,0,2,-
BRDA:82,0,0,10
BRDA:82,0,1,10
BRDA:83,4294967295,1,10
BRDA:83,4294967295,2,0
BRDA:85,4294967295,0,0
BRDA:85,4294967295,1,10
BRDA:86,0,1,-
BRDA:86,0,2,-
BRDA:90,0,1,10
BRDA:90,0,2,0
BRDA:91,0,0,10
BRDA:91,0,1,10
BRDA:92,4294967295,1,10
BRDA:92,4294967295,2,0
BRDA:95,0,1,5
BRDA:95,0,2,5
BRDA:96,0,0,14
BRDA:96,0,1,5
BRDA:97,4294967295,1,14
BRDA:97,4294967295,2,0
BRDA:100,0,1,5
BRDA:100,0,2,0
BRDA:101,0,0,28
BRDA:101,0,1,5
BRDA:102,0,1,28
BRDA:102,0,2,0
BRDA:109,4294967295,1,5
BRDA:109,4294967295,2,0
BRDA:111,0,1,5
BRDA:111,0,2,0
BRDA:113,4294967295,1,5
BRDA:113,4294967295,2,0
BRDA:114,0,1,5
BRDA:114,0,2,0
BRDA:115,0,1,5
BRDA:115,0,2,0
BRDA:123,1,0,10
BRDA:123,1,1,10
BRDA:124,0,1,10
BRDA:124,0,2,0
BRDA:124,1,4,10
BRDA:124,1,5,0
BRDA:126,4294967295,0,6
BRDA:126,4294967295,1,4
BRDA:128,4294967295,0,0
BRDA:128,4294967295,1,4
BRDA:130,4294967295,0,0
BRDA:130,4294967295,1,4
BRDA:131,4294967295,0,-
BRDA:131,4294967295,1,-
BRDA:134,4294967295,0,0
BRDA:134,4294967295,1,4
BRDA:136,4294967295,0,0
BRDA:136,4294967295,1,4
BRDA:137,4294967295,0,-
BRDA:137,4294967295,1,-
BRDA:140,4294967295,0,4
BRDA:140,4294967295,1,0
BRDA:141,4294967295,0,4
BRDA:141,4294967295,1,0
BRDA:145,0,1,-
BRDA:145,0,2,-
BRDA:145,1,4,-
BRDA:145,1,5,-
BRDA:148,0,0,10
BRDA:148,0,1,0
BRDA:149,0,1,10
BRDA:149,0,2,0
BRDA:150,0,1,10
BRDA:150,0,2,0
BRDA:151,4294967295,1,10
BRDA:151,4294967295,2,0
BRDA:151,0,4,10
BRDA:151,0,5,0
BRDA:162,1,0,10
BRDA:162,1,1,10
BRDA:163,0,1,10
BRDA:163,0,2,0
BRDA:163,1,4,10
BRDA:163,1,5,0
BRDA:165,4294967295,0,6
BRDA:165,4294967295,1,4
BRDA:167,4294967295,0,0
BRDA:167,4294967295,1,4
BRDA:169,4294967295,0,0
BRDA:169,4294967295,1,4
BRDA:171,4294967295,0,4
BRDA:171,4294967295,1,0
BRDA:174,0,1,-
BRDA:174,0,2,-
BRDA:174,1,4,-
BRDA:174,1,5,-
BRDA:176,0,0,10
BRDA:176,0,1,0
BRDA:177,0,1,10
BRDA:177,0,2,0
BRDA:178,4294967295,1,10
BRDA:178,4294967295,2,0
BRDA:178,0,4,10
BRDA:178,0,5,0
BRDA:195,1,0,19
BRDA:195,1,1,5
BRDA:196,0,0,19
BRDA:196,0,1,0
BRDA:196,1,2,0
BRDA:196,1,3,19
BRDA:199,0,1,19
BRDA:199,0,2,0
BRDA:199,1,4,19
BRDA:199,1,5,0
BRDA:201,4294967295,0,10
BRDA:201,4294967295,1,9
BRDA:202,0,1,10
BRDA:202,0,2,0
BRDA:203,0,1,10
BRDA:203,0,2,0
BRDA:206,4294967295,0,3
BRDA:206,4294967295,1,16
BRDA:207,0,1,3
BRDA:207,0,2,0
BRDA:208,4294967295,0,3
BRDA:208,4294967295,1,13
BRDA:209,0,1,3
BRDA:209,0,2,0
BRDA:210,4294967295,0,3
BRDA:210,4294967295,1,10
BRDA:211,0,1,3
BRDA:211,0,2,0
BRDA:212,4294967295,0,3
BRDA:212,4294967295,1,7
BRDA:213,0,1,3
BRDA:213,0,2,0
BRDA:214,4294967295,0,5
BRDA:214,4294967295,1,2
BRDA:215,0,1,2
BRDA:215,0,2,3
BRDA:216,4294967295,0,2
BRDA:216,4294967295,1,0
BRDA:217,0,1,0
BRDA:217,0,2,2
BRDA:218,4294967295,0,-
BRDA:218,4294967295,1,-
BRDA:219,0,1,-
BRDA:219,0,2,-
BRDA:220,4294967295,0,-
BRDA:220,4294967295,1,-
BRDA:221,0,1,-
BRDA:221,0,2,-
BRDA:222,4294967295,0,-
BRDA:222,4294967295,1,-
BRDA:223,0,1,-
BRDA:223,0,2,-
BRDA:224,4294967295,0,-
BRDA:224,4294967295,1,-
BRDA:225,0,1,-
BRDA:225,0,2,-
BRDA:226,4294967295,0,-
BRDA:226,4294967295,1,-
BRDA:227,0,1,-
BRDA:227,0,2,-
BRDA:228,4294967295,0,-
BRDA:228,4294967295,1,-
BRDA:229,0,1,-
BRDA:229,0,2,-
BRDA:231,0,1,-
BRDA:231,0,2,-
BRDA:231,1,4,-
BRDA:231,1,5,-
BRDA:234,0,0,14
BRDA:234,0,1,0
BRDA:235,0,1,14
BRDA:235,0,2,0
BRDA:236,4294967295,1,14
BRDA:236,4294967295,2,0
BRDA:236,0,4,14
BRDA:236,0,5,0
BRDA:254,4294967295,1,3
BRDA:254,4294967295,2,0
BRDA:255,0,1,3
BRDA:255,0,2,0
BRDA:257,4294967295,1,3
BRDA:257,4294967295,2,0
BRDA:258,4294967295,1,3
BRDA:258,4294967295,2,0
BRDA:267,4294967295,1,3
BRDA:267,4294967295,2,0
BRDA:268,0,1,3
BRDA:268,0,2,0
BRDA:270,4294967295,1,3
BRDA:270,4294967295,2,0
BRDA:271,4294967295,1,3
BRDA:271,4294967295,2,0
BRDA:280,4294967295,1,3
BRDA:280,4294967295,2,0
BRDA:281,0,1,3
BRDA:281,0,2,0
BRDA:283,4294967295,1,3
BRDA:283,4294967295,2,0
BRDA:284,4294967295,1,3
BRDA:284,4294967295,2,0
BRDA:296,4294967295,0,8
BRDA:296,4294967295,1,0
BRDA:301,4294967295,0,0
BRDA:301,4294967295,1,8
BRDA:309,0,1,5
BRDA:309,0,2,3
BRDA:311,0,1,5
BRDA:311,0,2,0
BRDA:312,4294967295,1,5
BRDA:312,4294967295,2,0
BRDA:313,4294967295,1,5
BRDA:313,4294967295,2,0
BRDA:323,4294967295,1,0
BRDA:323,4294967295,2,2
BRDA:325,0,1,-
BRDA:325,0,2,-
BRDA:328,4294967295,1,-
BRDA:328,4294967295,2,-
BRDA:329,4294967295,1,-
BRDA:329,4294967295,2,-
BRDA:340,4294967295,1,-
BRDA:340,4294967295,2,-
BRDA:342,0,1,-
BRDA:342,0,2,-
BRDA:344,0,1,-
BRDA:344,0,2,-
BRDA:345,4294967295,1,-
BRDA:345,4294967295,2,-
BRDA:346,4294967295,1,-
BRDA:346,4294967295,2,-
BRDA:357,4294967295,1,-
BRDA:357,4294967295,2,-
BRDA:359,0,1,-
BRDA:359,0,2,-
BRDA:362,4294967295,1,-
BRDA:362,4294967295,2,-
BRDA:363,4294967295,1,-
BRDA:363,4294967295,2,-
BRDA:374,4294967295,1,-
BRDA:374,4294967295,2,-
BRDA:376,0,1,-
BRDA:376,0,2,-
BRDA:379,4294967295,1,-
BRDA:379,4294967295,2,-
BRDA:380,4294967295,1,-
BRDA:380,4294967295,2,-
BRDA:391,4294967295,1,-
BRDA:391,4294967295,2,-
BRDA:393,0,1,-
BRDA:393,0,2,-
BRDA:396,4294967295,1,-
BRDA:396,4294967295,2,-
BRDA:397,4294967295,1,-
BRDA:397,4294967295,2,-
BRDA:408,4294967295,1,-
BRDA:408,4294967295,2,-
BRDA:410,0,1,-
BRDA:410,0,2,-
BRDA:413,4294967295,1,-
BRDA:413,4294967295,2,-
BRDA:414,4294967295,1,-
BRDA:414,4294967295,2,-
BRDA:425,4294967295,1,-
BRDA:425,4294967295,2,-
BRDA:427,0,1,-
BRDA:427,0,2,-
BRDA:430,4294967295,1,-
BRDA:430,4294967295,2,-
BRDA:431,4294967295,1,-
BRDA:431,4294967295,2,-
BRDA:438,0,1,-
BRDA:438,0,2,-
BRDA:438,1,4,-
BRDA:438,1,5,-
BRDA:439,0,0,-
BRDA:439,0,1,-
BRDA:439,1,2,-
BRDA:439,1,3,-
BRDA:440,0,0,-
BRDA:440,0,1,-
BRDA:448,0,1,-
BRDA:448,0,2,-
BRDA:448,1,4,-
BRDA:448,1,5,-
BRDA:449,0,0,-
BRDA:449,0,1,-
BRDA:449,1,2,-
BRDA:449,1,3,-
BRDA:450,0,0,-
BRDA:450,0,1,-
BRDA:451,4294967295,1,-
BRDA:451,4294967295,2,-
BRDA:459,0,0,-
BRDA:459,0,1,-
BRDA:460,0,0,-
BRDA:460,0,1,-
BRDA:463,0,0,-
BRDA:463,0,1,-
BRDA:466,0,0,-
BRDA:466,0,1,-
BRDA:469,0,0,-
BRDA:469,0,1,-
BRDA:473,0,0,-
BRDA:473,0,1,-
BRDA:473,1,2,-
BRDA:473,1,3,-
BRDA:485,0,0,-
BRDA:485,0,1,-
BRDA:485,1,2,-
BRDA:485,1,3,-
BRDA:486,4294967295,1,-
BRDA:486,4294967295,2,-
BRDA:487,0,1,-
BRDA:487,0,2,-
BRDA:493,0,0,-
BRDA:493,0,1,-
BRDA:494,0,0,-
BRDA:494,0,1,-
BRDA:498,0,0,-
BRDA:498,0,1,-
BRDA:505,0,0,-
BRDA:505,0,1,-
BRDA:505,1,2,-
BRDA:505,1,3,-
BRDA:509,0,0,-
BRDA:509,0,1,-
BRDA:510,0,0,-
BRDA:510,0,1,-
BRDA:510,1,2,-
BRDA:510,1,3,-
BRDA:513,0,0,-
BRDA:513,0,1,-
BRDA:513,1,2,-
BRDA:513,1,3,-
BRDA:519,3,1,20
BRDA:519,3,2,0
BRDA:519,4,3,20
BRDA:519,4,4,0
BRF:350
BRH:110
DA:67,10
DA:69,10
DA:70,0
DA:72,10
DA:75,10
DA:77,10
DA:78,10
DA:79,0
DA:82,20
DA:83,10
DA:85,10
DA:86,0
DA:90,10
DA:91,20
DA:92,10
DA:95,10
DA:96,19
DA:97,14
DA:100,5
DA:101,33
DA:102,28
DA:109,5
DA:110,5
DA:111,10
DA:113,5
DA:114,5
DA:115,5
DA:120,10
DA:123,20
DA:124,10
DA:126,10
DA:127,6
DA:128,4
DA:129,0
DA:130,4
DA:131,0
DA:132,0
DA:134,4
DA:135,0
DA:136,4
DA:137,0
DA:138,0
DA:140,4
DA:141,4
DA:142,4
DA:145,0
DA:148,10
DA:149,10
DA:150,20
DA:151,10
DA:155,10
DA:159,10
DA:162,20
DA:163,10
DA:165,10
DA:166,6
DA:167,4
DA:168,0
DA:169,4
DA:170,0
DA:171,4
DA:172,4
DA:174,0
DA:176,10
DA:177,20
DA:178,10
DA:182,10
DA:186,10
DA:189,20
DA:192,10
DA:195,24
DA:196,19
DA:197,0
DA:199,19
DA:201,19
DA:202,10
DA:203,20
DA:206,19
DA:207,6
DA:208,16
DA:209,6
DA:210,13
DA:211,6
DA:212,10
DA:213,6
DA:214,7
DA:215,7
DA:216,2
DA:217,2
DA:218,0
DA:219,0
DA:220,0
DA:221,0
DA:222,0
DA:223,0
DA:224,0
DA:225,0
DA:226,0
DA:227,0
DA:228,0
DA:229,0
DA:231,0
DA:234,14
DA:235,28
DA:236,14
DA:240,5
DA:244,3
DA:247,3
DA:251,3
DA:253,6
DA:254,3
DA:255,3
DA:257,3
DA:258,3
DA:260,3
DA:264,3
DA:266,6
DA:267,3
DA:268,3
DA:270,3
DA:271,3
DA:273,3
DA:277,3
DA:279,6
DA:280,3
DA:281,3
DA:283,3
DA:284,3
DA:286,3
DA:290,8
DA:293,8
DA:296,8
DA:298,8
DA:301,8
DA:303,0
DA:306,16
DA:309,8
DA:311,5
DA:312,5
DA:313,5
DA:315,5
DA:319,2
DA:322,4
DA:323,2
DA:325,0
DA:327,0
DA:328,0
DA:329,0
DA:331,0
DA:335,0
DA:339,0
DA:340,0
DA:342,0
DA:344,0
DA:345,0
DA:346,0
DA:348,0
DA:352,0
DA:356,0
DA:357,0
DA:359,0
DA:361,0
DA:362,0
DA:363,0
DA:365,0
DA:369,0
DA:373,0
DA:374,0
DA:376,0
DA:379,0
DA:380,0
DA:382,0
DA:386,0
DA:390,0
DA:391,0
DA:393,0
DA:395,0
DA:396,0
DA:397,0
DA:399,0
DA:403,0
DA:407,0
DA:408,0
DA:410,0
DA:413,0
DA:414,0
DA:416,0
DA:420,0
DA:424,0
DA:425,0
DA:427,0
DA:430,0
DA:431,0
DA:433,0
DA:436,0
DA:438,0
DA:439,0
DA:440,0
DA:441,0
DA:443,0
DA:445,0
DA:446,0
DA:448,0
DA:449,0
DA:450,0
DA:451,0
DA:453,0
DA:455,0
DA:457,0
DA:459,0
DA:460,0
DA:461,0
DA:463,0
DA:464,0
DA:466,0
DA:467,0
DA:469,0
DA:470,0
DA:471,0
DA:473,0
DA:474,0
DA:476,0
DA:479,0
DA:481,0
DA:485,0
DA:486,0
DA:487,0
DA:489,0
DA:491,0
DA:493,0
DA:494,0
DA:495,0
DA:498,0
DA:499,0
DA:501,0
DA:503,0
DA:505,0
DA:506,0
DA:509,0
DA:510,0
DA:511,0
DA:513,0
DA:514,0
DA:516,0
DA:519,80
LF:245
LH:117
end_of_record
TN:
SF:/home/intel/ros2_overlay_ws/src/ros2_openvino_toolkit/dynamic_vino_lib/src/pipeline_params.cpp
FN:26,_ZN14PipelineParamsC2ERKNSt7__cxx1112basic_stringIcSt11char_traitsIcESaIcEEE
FN:31,_ZN14PipelineParamsC2ERKN6Params12ParamManager15PipelineRawDataE
FN:36,_ZN14PipelineParamsaSERKN6Params12ParamManager15PipelineRawDataE
FN:47,_ZN14PipelineParams11getPipelineERKNSt7__cxx1112basic_stringIcSt11char_traitsIcESaIcEEE
FN:52,_ZN14PipelineParams6updateEv
FN:59,_ZN14PipelineParams6updateERKN6Params12ParamManager15PipelineRawDataE
FN:64,_ZN14PipelineParams10isOutputToERNSt7__cxx1112basic_stringIcSt11char_traitsIcESaIcEEE
FN:72,_ZN14PipelineParams8isGetFpsEv
FN:82,_ZN14PipelineParams20findFilterConditionsERKNSt7__cxx1112basic_stringIcSt11char_traitsIcESaIcEEES7_
FN:91,_GLOBAL__sub_I_pipeline_params.cpp
FNDA:10,_ZN14PipelineParams6updateERKN6Params12ParamManager15PipelineRawDataE
FNDA:0,_ZN14PipelineParamsaSERKN6Params12ParamManager15PipelineRawDataE
FNDA:0,_ZN14PipelineParams11getPipelineERKNSt7__cxx1112basic_stringIcSt11char_traitsIcESaIcEEE
FNDA:0,_ZN14PipelineParamsC2ERKN6Params12ParamManager15PipelineRawDataE
FNDA:0,_ZN14PipelineParams8isGetFpsEv
FNDA:0,_ZN14PipelineParams6updateEv
FNDA:20,_Z41__static_initialization_and_destruction_0ii
FNDA:20,_GLOBAL__sub_I_pipeline_params.cpp
FNDA:0,_ZN14PipelineParams10isOutputToERNSt7__cxx1112basic_stringIcSt11char_traitsIcESaIcEEE
FNDA:10,_ZN14PipelineParamsC2ERKNSt7__cxx1112basic_stringIcSt11char_traitsIcESaIcEEE
FNDA:16,_ZN14PipelineParams20findFilterConditionsERKNSt7__cxx1112basic_stringIcSt11char_traitsIcESaIcEEES7_
FNF:11
FNH:5
BRDA:33,0,1,-
BRDA:33,0,2,-
BRDA:54,0,0,-
BRDA:54,0,1,-
BRDA:66,0,1,-
BRDA:66,0,2,-
BRDA:75,0,0,-
BRDA:75,0,1,-
BRDA:85,0,0,0
BRDA:85,0,1,16
BRDA:86,4294967295,0,-
BRDA:86,4294967295,1,-
BRDA:86,0,2,-
BRDA:86,0,3,-
BRDA:91,3,1,20
BRDA:91,3,2,0
BRDA:91,4,3,20
BRDA:91,4,4,0
BRF:18
BRH:3
DA:26,10
DA:28,10
DA:29,10
DA:31,0
DA:33,0
DA:34,0
DA:36,0
DA:38,0
DA:39,0
DA:40,0
DA:41,0
DA:44,0
DA:47,0
DA:49,0
DA:52,0
DA:54,0
DA:55,0
DA:57,0
DA:59,10
DA:61,10
DA:62,10
DA:64,0
DA:66,0
DA:69,0
DA:72,0
DA:75,0
DA:78,0
DA:82,16
DA:85,16
DA:86,0
DA:87,0
DA:90,16
DA:91,80
LF:33
LH:10
end_of_record
TN:
SF:/home/intel/ros2_overlay_ws/src/ros2_openvino_toolkit/dynamic_vino_lib/src/services/frame_processing_server.cpp
FN:98,_GLOBAL__sub_I_frame_processing_server.cpp
FN:98,_Z41__static_initialization_and_destruction_0ii
FNDA:2,_ZN12vino_service21FrameProcessingServerIN11people_msgs3srv6PeopleEE9cbServiceESt10shared_ptrINS2_15People_Request_ISaIvEEEES5_INS2_16People_Response_IS7_EEE
FNDA:20,_Z41__static_initialization_and_destruction_0ii
FNDA:3,_ZN12vino_service21FrameProcessingServerIN11people_msgs3srv6PeopleEE11initServiceERKNSt7__cxx1112basic_stringIcSt11char_traitsIcESaIcEEE
FNDA:3,_ZN12vino_service21FrameProcessingServerIN11object_msgs3srv12DetectObjectEEC2ERKNSt7__cxx1112basic_stringIcSt11char_traitsIcESaIcEEESC_
FNDA:20,_GLOBAL__sub_I_frame_processing_server.cpp
FNDA:3,_ZN12vino_service21FrameProcessingServerIN11people_msgs3srv6PeopleEEC2ERKNSt7__cxx1112basic_stringIcSt11char_traitsIcESaIcEEESC_
FNDA:3,_ZN12vino_service21FrameProcessingServerIN11object_msgs3srv12DetectObjectEE11initServiceERKNSt7__cxx1112basic_stringIcSt11char_traitsIcESaIcEEE
FNDA:2,_ZN12vino_service21FrameProcessingServerIN11object_msgs3srv12DetectObjectEE9cbServiceESt10shared_ptrINS2_21DetectObject_Request_ISaIvEEEES5_INS2_22DetectObject_Response_IS7_EEE
FNF:8
FNH:8
BRDA:42,0,3,3
BRDA:42,0,4,0
BRDA:42,1,6,3
BRDA:42,1,7,0
BRDA:42,6,15,3
BRDA:42,6,16,0
BRDA:42,7,18,3
BRDA:42,7,19,0
BRDA:44,0,1,2
BRDA:44,0,2,1
BRDA:44,1,4,2
BRDA:44,1,5,1
BRDA:51,0,2,3
BRDA:51,0,3,0
BRDA:51,1,6,3
BRDA:51,1,7,0
BRDA:56,0,0,2
BRDA:56,0,1,1
BRDA:56,2,2,2
BRDA:56,2,3,1
BRDA:57,0,2,1
BRDA:57,0,3,0
BRDA:57,3,8,1
BRDA:57,3,9,0
BRDA:60,0,0,2
BRDA:60,0,1,2
BRDA:60,1,2,2
BRDA:60,1,3,2
BRDA:61,0,2,2
BRDA:61,0,3,0
BRDA:61,1,6,2
BRDA:61,1,7,0
BRDA:64,0,1,2
BRDA:64,0,2,0
BRDA:64,1,4,2
BRDA:64,1,5,0
BRDA:64,3,7,2
BRDA:64,3,8,0
BRDA:64,4,10,2
BRDA:64,4,11,0
BRDA:76,0,0,2
BRDA:76,0,1,0
BRDA:76,1,2,2
BRDA:76,1,3,0
BRDA:77,0,1,2
BRDA:77,0,2,0
BRDA:77,1,4,2
BRDA:77,1,5,0
BRDA:77,3,7,2
BRDA:77,3,8,0
BRDA:77,4,10,2
BRDA:77,4,11,0
BRDA:81,0,1,2
BRDA:81,0,2,0
BRDA:81,1,4,2
BRDA:81,1,5,0
BRDA:82,0,1,2
BRDA:82,0,2,0
BRDA:82,1,4,2
BRDA:82,1,5,0
BRDA:85,0,0,2
BRDA:85,0,1,0
BRDA:85,1,2,2
BRDA:85,1,3,0
BRDA:86,0,1,2
BRDA:86,0,2,0
BRDA:86,1,4,2
BRDA:86,1,5,0
BRDA:87,4294967295,1,2
BRDA:87,4294967295,2,0
BRDA:87,4294967295,4,2
BRDA:87,4294967295,5,0
BRDA:88,0,1,2
BRDA:88,0,2,0
BRDA:88,1,4,2
BRDA:88,1,5,0
BRDA:93,0,1,-
BRDA:93,0,2,-
BRDA:93,1,4,-
BRDA:93,1,5,-
BRDA:98,3,1,20
BRDA:98,3,2,0
BRDA:98,4,3,20
BRDA:98,4,4,0
BRF:84
BRH:46
DA:37,6
DA:42,14
DA:44,6
DA:45,4
DA:48,6
DA:51,12
DA:52,6
DA:53,12
DA:54,12
DA:56,6
DA:57,2
DA:60,8
DA:61,4
DA:64,4
DA:67,4
DA:70,4
DA:75,4
DA:76,4
DA:77,4
DA:80,4
DA:81,4
DA:82,4
DA:85,4
DA:86,4
DA:87,4
DA:88,4
DA:93,0
DA:98,80
LF:28
LH:27
end_of_record
TN:
SF:/home/intel/ros2_overlay_ws/src/ros2_openvino_toolkit/dynamic_vino_lib/src/services/pipeline_processing_server.cpp
FN:70,_ZN12vino_service24PipelineProcessingServerIN17pipeline_srv_msgs3srv11PipelineSrvEE20setPipelineByRequestENSt7__cxx1112basic_stringIcSt11char_traitsIcESaIcEEEN15PipelineManager13PipelineStateE
FN:104,_GLOBAL__sub_I_pipeline_processing_server.cpp
FN:104,_Z41__static_initialization_and_destruction_0ii
FNDA:20,_Z41__static_initialization_and_destruction_0ii
FNDA:20,_GLOBAL__sub_I_pipeline_processing_server.cpp
FNDA:0,_ZN12vino_service24PipelineProcessingServerIN17pipeline_srv_msgs3srv11PipelineSrvEE11setResponseESt10shared_ptrINS2_21PipelineSrv_Response_ISaIvEEEE
FNDA:0,_ZN12vino_service24PipelineProcessingServerIN17pipeline_srv_msgs3srv11PipelineSrvEE9cbServiceESt10shared_ptrINS2_20PipelineSrv_Request_ISaIvEEEES5_INS2_21PipelineSrv_Response_IS7_EEE
FNDA:0,_ZN12vino_service24PipelineProcessingServerIN17pipeline_srv_msgs3srv11PipelineSrvEE20setPipelineByRequestENSt7__cxx1112basic_stringIcSt11char_traitsIcESaIcEEEN15PipelineManager13PipelineStateE
FNDA:0,_ZN12vino_service24PipelineProcessingServerIN17pipeline_srv_msgs3srv11PipelineSrvEEC2ERKNSt7__cxx1112basic_stringIcSt11char_traitsIcESaIcEEE
FNDA:0,_ZN12vino_service24PipelineProcessingServerIN17pipeline_srv_msgs3srv11PipelineSrvEE19initPipelineServiceEv
FNF:7
FNH:2
BRDA:36,0,3,-
BRDA:36,0,4,-
BRDA:39,4294967295,1,-
BRDA:39,4294967295,2,-
BRDA:45,0,1,-
BRDA:45,0,2,-
BRDA:45,1,4,-
BRDA:45,1,5,-
BRDA:54,0,0,-
BRDA:54,0,1,-
BRDA:55,0,1,-
BRDA:55,0,2,-
BRDA:60,0,0,-
BRDA:60,0,1,-
BRDA:61,0,1,-
BRDA:61,0,2,-
BRDA:64,0,1,-
BRDA:64,0,2,-
BRDA:66,0,1,-
BRDA:66,0,2,-
BRDA:74,0,0,-
BRDA:74,0,1,-
BRDA:75,0,0,-
BRDA:75,0,1,-
BRDA:89,0,1,-
BRDA:89,0,2,-
BRDA:89,1,4,-
BRDA:89,1,5,-
BRDA:89,2,7,-
BRDA:89,2,8,-
BRDA:90,0,1,-
BRDA:90,0,2,-
BRDA:93,4294967295,0,-
BRDA:93,4294967295,1,-
BRDA:94,4294967295,0,-
BRDA:94,4294967295,1,-
BRDA:96,4294967295,0,-
BRDA:96,4294967295,1,-
BRDA:98,4294967295,0,-
BRDA:98,4294967295,1,-
BRDA:99,0,1,-
BRDA:99,0,2,-
BRDA:101,4294967295,1,-
BRDA:101,4294967295,2,-
BRDA:104,3,1,20
BRDA:104,3,2,0
BRDA:104,4,3,20
BRDA:104,4,4,0
BRF:48
BRH:2
DA:33,0
DA:36,0
DA:38,0
DA:39,0
DA:40,0
DA:43,0
DA:45,0
DA:48,0
DA:51,0
DA:54,0
DA:55,0
DA:56,0
DA:57,0
DA:60,0
DA:61,0
DA:64,0
DA:66,0
DA:68,0
DA:70,0
DA:74,0
DA:75,0
DA:76,0
DA:77,0
DA:80,0
DA:83,0
DA:89,0
DA:90,0
DA:93,0
DA:94,0
DA:96,0
DA:98,0
DA:99,0
DA:101,0
DA:102,0
DA:104,80
LF:35
LH:1
end_of_record
TN:
SF:/home/intel/ros2_overlay_ws/src/ros2_openvino_toolkit/dynamic_vino_lib/tests/lib/unittest_createPipelineCheck.cpp
FN:44,_Z13getConfigPathB5cxx11v
FN:52,_ZN39UnitTestCheckPipeline_testPipeline_TestD0Ev
FN:52,_ZN39UnitTestCheckPipeline_testPipeline_TestD2Ev
FN:67,main
FN:72,_GLOBAL__sub_I__Z13getConfigPathB5cxx11v
FN:72,_Z41__static_initialization_and_destruction_0ii
FNDA:1,main
FNDA:1,_ZN39UnitTestCheckPipeline_testPipeline_Test8TestBodyEv
FNDA:0,_ZN39UnitTestCheckPipeline_testPipeline_TestD2Ev
FNDA:1,_Z41__static_initialization_and_destruction_0ii
FNDA:1,_Z13getConfigPathB5cxx11v
FNDA:1,_ZN39UnitTestCheckPipeline_testPipeline_TestD0Ev
FNDA:1,_GLOBAL__sub_I__Z13getConfigPathB5cxx11v
FNF:7
FNH:6
BRDA:48,0,1,1
BRDA:48,0,2,0
BRDA:48,1,4,1
BRDA:48,1,5,0
BRDA:48,2,7,1
BRDA:48,2,8,0
BRDA:49,0,1,1
BRDA:49,0,2,0
BRDA:52,4294967295,1,1
BRDA:52,4294967295,2,0
BRDA:52,4294967295,6,1
BRDA:52,4294967295,7,0
BRDA:52,0,9,1
BRDA:52,0,10,0
BRDA:55,4294967295,1,1
BRDA:55,4294967295,2,0
BRDA:55,4294967295,3,0
BRDA:55,4294967295,4,1
BRDA:55,0,6,-
BRDA:55,0,7,-
BRDA:55,1,9,-
BRDA:55,1,10,-
BRDA:55,2,12,-
BRDA:55,2,13,-
BRDA:55,3,15,-
BRDA:55,3,16,-
BRDA:56,0,1,1
BRDA:56,0,2,0
BRDA:56,1,3,1
BRDA:56,1,4,0
BRDA:56,2,6,1
BRDA:56,2,7,0
BRDA:56,3,8,1
BRDA:56,3,9,0
BRDA:56,5,12,1
BRDA:56,5,13,0
BRDA:56,7,16,1
BRDA:56,7,17,0
BRDA:56,8,18,0
BRDA:56,8,19,1
BRDA:56,9,21,-
BRDA:56,9,22,-
BRDA:56,10,24,-
BRDA:56,10,25,-
BRDA:56,11,27,-
BRDA:56,11,28,-
BRDA:56,14,30,1
BRDA:56,14,31,1
BRDA:56,15,34,1
BRDA:56,15,35,0
BRDA:56,17,38,-
BRDA:56,17,39,-
BRDA:56,18,41,-
BRDA:56,18,42,-
BRDA:56,19,44,-
BRDA:56,19,45,-
BRDA:56,20,51,-
BRDA:56,20,52,-
BRDA:70,4294967295,3,1
BRDA:70,4294967295,4,0
BRDA:72,3,1,1
BRDA:72,3,2,0
BRDA:72,4,3,1
BRDA:72,4,4,0
BRF:64
BRH:22
DA:44,1
DA:48,1
DA:49,2
DA:52,6
DA:54,1
DA:55,2
DA:56,6
DA:67,1
DA:69,1
DA:70,1
DA:72,4
LF:11
LH:11
end_of_record
TN:
SF:/home/intel/ros2_overlay_ws/src/ros2_openvino_toolkit/sample/include/utility.hpp
FN:46,_ZL17showUsageForParamv
FNDA:0,_ZL17showUsageForParamv
FNF:1
FNH:0
BRDA:41,4294967295,2,18
BRDA:41,4294967295,3,0
BRDA:41,0,5,18
BRDA:41,0,6,0
BRF:4
BRH:2
DA:37,18
DA:41,18
DA:46,0
DA:48,0
DA:49,0
DA:50,0
DA:51,0
DA:52,0
DA:53,0
DA:54,0
LF:10
LH:2
end_of_record
TN:
SF:/home/intel/ros2_overlay_ws/src/ros2_openvino_toolkit/sample/src/image_object_client.cpp
FN:24,main
FN:91,_Z41__static_initialization_and_destruction_0ii
FN:91,_GLOBAL__sub_I_image_object_client.cpp
FNDA:0,main
FNDA:0,_Z41__static_initialization_and_destruction_0ii
FNDA:0,_GLOBAL__sub_I_image_object_client.cpp
FNF:3
FNH:0
DA:24,0
DA:26,0
DA:28,0
DA:29,0
DA:30,0
DA:32,0
DA:35,0
DA:36,0
DA:37,0
DA:39,0
DA:41,0
DA:42,0
DA:43,0
DA:44,0
DA:46,0
DA:49,0
DA:50,0
DA:53,0
DA:55,0
DA:56,0
DA:57,0
DA:59,0
DA:60,0
DA:61,0
DA:62,0
DA:63,0
DA:65,0
DA:67,0
DA:72,0
DA:73,0
DA:74,0
DA:75,0
DA:77,0
DA:78,0
DA:80,0
DA:81,0
DA:82,0
DA:83,0
DA:85,0
DA:86,0
DA:88,0
DA:89,0
DA:91,0
LF:43
LH:0
end_of_record
TN:
SF:/home/intel/ros2_overlay_ws/src/ros2_openvino_toolkit/sample/src/image_object_server.cpp
FN:32,_Z24parseAndCheckCommandLineiPPc
FN:44,_Z13getConfigPathB5cxx11iPPc
FN:59,main
FN:76,_GLOBAL__sub_I_image_object_server.cpp
FNDA:3,main
FNDA:3,_Z24parseAndCheckCommandLineiPPc
FNDA:3,_Z13getConfigPathB5cxx11iPPc
FNDA:3,_Z41__static_initialization_and_destruction_0ii
FNDA:3,_GLOBAL__sub_I_image_object_server.cpp
FNF:5
FNH:5
BRDA:36,4294967295,0,0
BRDA:36,4294967295,1,3
BRDA:46,0,1,3
BRDA:46,0,2,0
BRDA:46,1,3,3
BRDA:46,1,4,0
BRDA:47,0,1,3
BRDA:47,0,2,0
BRDA:48,0,1,3
BRDA:48,0,2,0
BRDA:54,4294967295,2,-
BRDA:54,4294967295,3,-
BRDA:54,0,6,-
BRDA:54,0,7,-
BRDA:54,1,9,-
BRDA:54,1,10,-
BRDA:56,4294967295,1,-
BRDA:56,4294967295,2,-
BRDA:61,0,1,3
BRDA:61,0,2,0
BRDA:61,1,4,3
BRDA:61,1,5,0
BRDA:61,2,7,3
BRDA:61,2,8,0
BRDA:63,4294967295,1,3
BRDA:63,4294967295,2,0
BRDA:66,0,2,3
BRDA:66,0,3,0
BRDA:66,5,7,1
BRDA:66,5,8,0
BRDA:68,4294967295,1,2
BRDA:68,4294967295,2,1
BRDA:69,0,2,2
BRDA:69,0,3,0
BRDA:71,4294967295,2,1
BRDA:71,4294967295,3,0
BRDA:71,0,5,1
BRDA:71,0,6,0
BRDA:72,4294967295,2,-
BRDA:72,4294967295,3,-
BRDA:74,4294967295,1,-
BRDA:74,4294967295,2,-
BRDA:74,4294967295,4,-
BRDA:74,4294967295,5,-
BRDA:74,4294967295,7,-
BRDA:74,4294967295,8,-
BRDA:76,3,1,3
BRDA:76,3,2,0
BRDA:76,4,3,3
BRDA:76,4,4,0
BRF:50
BRH:18
DA:32,3
DA:35,3
DA:36,3
DA:37,0
DA:38,0
DA:41,3
DA:44,3
DA:46,3
DA:47,3
DA:48,3
DA:52,3
DA:53,0
DA:54,0
DA:56,0
DA:59,3
DA:61,3
DA:63,6
DA:66,6
DA:68,5
DA:69,2
DA:70,2
DA:71,1
DA:72,0
DA:74,0
DA:76,15
LF:25
LH:18
end_of_record
TN:
SF:/home/intel/ros2_overlay_ws/src/ros2_openvino_toolkit/sample/src/image_people_client.cpp
FN:27,main
FN:86,_GLOBAL__sub_I_image_people_client.cpp
FN:86,_Z41__static_initialization_and_destruction_0ii
FNDA:0,_Z41__static_initialization_and_destruction_0ii
FNDA:0,main
FNDA:0,_GLOBAL__sub_I_image_people_client.cpp
FNF:3
FNH:0
DA:27,0
DA:29,0
DA:31,0
DA:32,0
DA:33,0
DA:35,0
DA:38,0
DA:40,0
DA:41,0
DA:42,0
DA:44,0
DA:45,0
DA:46,0
DA:47,0
DA:49,0
DA:52,0
DA:54,0
DA:57,0
DA:58,0
DA:59,0
DA:61,0
DA:62,0
DA:64,0
DA:66,0
DA:67,0
DA:69,0
DA:71,0
DA:75,0
DA:77,0
DA:79,0
DA:84,0
DA:86,0
LF:32
LH:0
end_of_record
TN:
SF:/home/intel/ros2_overlay_ws/src/ros2_openvino_toolkit/sample/src/image_people_server.cpp
FN:33,_Z24parseAndCheckCommandLineiPPc
FN:46,_Z13getConfigPathB5cxx11iPPc
FN:61,main
FN:77,_GLOBAL__sub_I_image_people_server.cpp
FNDA:3,main
FNDA:3,_GLOBAL__sub_I_image_people_server.cpp
FNDA:3,_Z24parseAndCheckCommandLineiPPc
FNDA:3,_Z13getConfigPathB5cxx11iPPc
FNDA:3,_Z41__static_initialization_and_destruction_0ii
FNF:5
FNH:5
BRDA:37,4294967295,0,0
BRDA:37,4294967295,1,3
BRDA:48,0,1,3
BRDA:48,0,2,0
BRDA:48,1,3,3
BRDA:48,1,4,0
BRDA:49,0,1,3
BRDA:49,0,2,0
BRDA:50,0,1,3
BRDA:50,0,2,0
BRDA:56,4294967295,2,-
BRDA:56,4294967295,3,-
BRDA:56,0,6,-
BRDA:56,0,7,-
BRDA:56,1,9,-
BRDA:56,1,10,-
BRDA:58,4294967295,1,-
BRDA:58,4294967295,2,-
BRDA:63,0,1,3
BRDA:63,0,2,0
BRDA:63,1,4,3
BRDA:63,1,5,0
BRDA:63,2,7,3
BRDA:63,2,8,0
BRDA:65,4294967295,1,3
BRDA:65,4294967295,2,0
BRDA:69,0,1,2
BRDA:69,0,2,1
BRDA:69,3,5,1
BRDA:69,3,6,0
BRDA:70,0,2,2
BRDA:70,0,3,0
BRDA:72,4294967295,2,1
BRDA:72,4294967295,3,0
BRDA:72,0,5,1
BRDA:72,0,6,0
BRDA:73,4294967295,2,-
BRDA:73,4294967295,3,-
BRDA:75,4294967295,1,-
BRDA:75,4294967295,2,-
BRDA:75,4294967295,4,-
BRDA:75,4294967295,5,-
BRDA:75,4294967295,7,-
BRDA:75,4294967295,8,-
BRDA:77,3,1,3
BRDA:77,3,2,0
BRDA:77,4,3,3
BRDA:77,4,4,0
BRF:48
BRH:17
DA:33,3
DA:36,3
DA:37,3
DA:38,0
DA:39,0
DA:42,3
DA:46,3
DA:48,3
DA:49,3
DA:50,3
DA:54,3
DA:55,0
DA:56,0
DA:58,0
DA:61,3
DA:63,3
DA:65,6
DA:69,5
DA:70,2
DA:71,2
DA:72,1
DA:73,0
DA:75,0
DA:77,15
LF:24
LH:17
end_of_record
TN:
SF:/home/intel/ros2_overlay_ws/src/ros2_openvino_toolkit/sample/src/parameters.cpp
FN:35,_Z24parseAndCheckCommandLineiPPc
FN:52,main
FN:72,_Z41__static_initialization_and_destruction_0ii
FN:72,_GLOBAL__sub_I_parameters.cpp
FNDA:0,_GLOBAL__sub_I_parameters.cpp
FNDA:0,_Z41__static_initialization_and_destruction_0ii
FNDA:0,_Z24parseAndCheckCommandLineiPPc
FNDA:0,main
FNF:4
FNH:0
DA:35,0
DA:38,0
DA:39,0
DA:40,0
DA:41,0
DA:43,0
DA:44,0
DA:45,0
DA:47,0
DA:49,0
DA:52,0
DA:56,0
DA:57,0
DA:60,0
DA:61,0
DA:63,0
DA:64,0
DA:65,0
DA:66,0
DA:67,0
DA:68,0
DA:69,0
DA:70,0
DA:72,0
LF:24
LH:0
end_of_record
TN:
SF:/home/intel/ros2_overlay_ws/src/ros2_openvino_toolkit/sample/src/pipeline_with_params.cpp
FN:50,_Z13signalHandleri
FN:60,_Z24parseAndCheckCommandLineiPPc
FN:72,_Z13getConfigPathB5cxx11iPPc
FN:87,main
FN:123,_GLOBAL__sub_I_pipeline_with_params.cpp
FNDA:12,main
FNDA:12,_Z24parseAndCheckCommandLineiPPc
FNDA:12,_Z41__static_initialization_and_destruction_0ii
FNDA:12,_Z13getConfigPathB5cxx11iPPc
FNDA:0,_Z13signalHandleri
FNDA:12,_GLOBAL__sub_I_pipeline_with_params.cpp
FNF:6
FNH:5
BRDA:64,4294967295,0,0
BRDA:64,4294967295,1,12
BRDA:74,0,1,12
BRDA:74,0,2,0
BRDA:74,1,3,12
BRDA:74,1,4,0
BRDA:75,0,1,12
BRDA:75,0,2,0
BRDA:76,0,1,12
BRDA:76,0,2,0
BRDA:82,4294967295,2,-
BRDA:82,4294967295,3,-
BRDA:82,0,6,-
BRDA:82,0,7,-
BRDA:82,1,9,-
BRDA:82,1,10,-
BRDA:84,4294967295,1,-
BRDA:84,4294967295,2,-
BRDA:89,0,3,12
BRDA:89,0,4,0
BRDA:95,4294967295,1,12
BRDA:95,4294967295,2,0
BRDA:95,0,5,12
BRDA:95,0,6,0
BRDA:95,1,8,12
BRDA:95,1,9,0
BRDA:99,0,1,12
BRDA:99,0,2,0
BRDA:99,3,5,12
BRDA:99,3,6,0
BRDA:100,0,1,12
BRDA:100,0,2,0
BRDA:100,1,4,12
BRDA:100,1,5,0
BRDA:100,2,7,12
BRDA:100,2,8,0
BRDA:102,0,1,12
BRDA:102,0,2,0
BRDA:102,1,4,12
BRDA:102,1,5,0
BRDA:102,2,7,12
BRDA:102,2,8,0
BRDA:103,4294967295,1,12
BRDA:103,4294967295,2,0
BRDA:103,0,4,12
BRDA:103,0,5,0
BRDA:104,0,1,12
BRDA:104,0,2,0
BRDA:104,1,4,12
BRDA:104,1,5,0
BRDA:105,0,1,12
BRDA:105,0,2,0
BRDA:105,1,4,12
BRDA:105,1,5,0
BRDA:106,0,1,7
BRDA:106,0,2,5
BRDA:107,0,2,7
BRDA:107,0,3,0
BRDA:110,1,3,5
BRDA:110,1,4,0
BRDA:111,4294967295,1,5
BRDA:111,4294967295,2,0
BRDA:111,0,4,0
BRDA:111,0,5,5
BRDA:114,0,1,-
BRDA:114,0,2,-
BRDA:114,1,4,-
BRDA:114,1,5,-
BRDA:115,0,1,-
BRDA:115,0,2,-
BRDA:115,1,4,-
BRDA:115,1,5,-
BRDA:117,4294967295,2,12
BRDA:117,4294967295,3,0
BRDA:117,0,5,12
BRDA:117,0,6,0
BRDA:120,4294967295,1,-
BRDA:120,4294967295,2,-
BRDA:120,4294967295,4,-
BRDA:120,4294967295,5,-
BRDA:123,3,1,12
BRDA:123,3,2,0
BRDA:123,4,3,12
BRDA:123,4,4,0
BRF:84
BRH:33
DA:50,0
DA:52,0
DA:56,0
DA:58,0
DA:60,12
DA:63,12
DA:64,12
DA:65,0
DA:66,0
DA:69,12
DA:72,12
DA:74,12
DA:75,12
DA:76,12
DA:80,12
DA:81,0
DA:82,0
DA:84,0
DA:87,12
DA:89,12
DA:92,12
DA:95,12
DA:99,24
DA:100,12
DA:102,12
DA:103,12
DA:104,24
DA:105,24
DA:106,12
DA:107,12
DA:110,5
DA:111,5
DA:114,0
DA:115,0
DA:116,24
DA:117,12
DA:118,12
DA:119,0
DA:120,0
DA:121,0
DA:123,60
LF:41
LH:27
end_of_record
TN:
SF:/home/intel/ros2_overlay_ws/src/ros2_openvino_toolkit/sample/tests/service/unittest_objectService.cpp
FN:27,_Z18generate_file_pathNSt7__cxx1112basic_stringIcSt11char_traitsIcESaIcEEE
FN:35,_ZN30UnitTestObject_testObject_TestD2Ev
FN:35,_ZN30UnitTestObject_testObject_TestC2Ev
FN:35,_ZN30UnitTestObject_testObject_Test8TestBodyEv
FN:35,_ZN30UnitTestObject_testObject_TestD0Ev
FN:77,main
FN:86,_GLOBAL__sub_I_unittest_objectService.cpp
FN:86,_Z41__static_initialization_and_destruction_0ii
FNDA:3,_ZN30UnitTestObject_testObject_TestC2Ev
FNDA:3,_Z41__static_initialization_and_destruction_0ii
FNDA:3,_ZN30UnitTestObject_testObject_Test8TestBodyEv
FNDA:3,main
FNDA:3,_ZN30UnitTestObject_testObject_TestD0Ev
FNDA:3,_ZN30UnitTestObject_testObject_TestD2Ev
FNDA:3,_Z18generate_file_pathNSt7__cxx1112basic_stringIcSt11char_traitsIcESaIcEEE
FNDA:3,_GLOBAL__sub_I_unittest_objectService.cpp
FNF:8
FNH:8
BRDA:29,0,2,3
BRDA:29,0,3,0
BRDA:30,4294967295,2,3
BRDA:30,4294967295,3,0
BRDA:31,4294967295,3,3
BRDA:31,4294967295,4,0
BRDA:32,4294967295,1,3
BRDA:32,4294967295,2,0
BRDA:32,0,4,3
BRDA:32,0,5,0
BRDA:35,4294967295,5,3
BRDA:35,4294967295,6,0
BRDA:35,0,8,3
BRDA:35,0,9,0
BRDA:35,1,11,3
BRDA:35,1,12,0
BRDA:37,0,1,3
BRDA:37,0,2,0
BRDA:39,0,4,3
BRDA:39,0,5,0
BRDA:39,1,7,3
BRDA:39,1,8,0
BRDA:39,6,13,2
BRDA:39,6,14,1
BRDA:40,4294967295,1,3
BRDA:40,4294967295,2,0
BRDA:40,3,4,2
BRDA:40,3,5,1
BRDA:42,0,2,3
BRDA:42,0,3,0
BRDA:42,1,5,3
BRDA:42,1,6,0
BRDA:42,6,10,2
BRDA:42,6,11,1
BRDA:43,4294967295,1,3
BRDA:43,4294967295,2,0
BRDA:43,0,4,3
BRDA:43,0,5,0
BRDA:44,0,2,3
BRDA:44,0,3,0
BRDA:46,0,3,3
BRDA:46,0,4,0
BRDA:46,1,5,1
BRDA:46,1,6,2
BRDA:47,0,2,1
BRDA:47,0,3,0
BRDA:47,1,5,1
BRDA:47,1,6,0
BRDA:47,2,8,1
BRDA:47,2,9,0
BRDA:47,3,11,1
BRDA:47,3,12,0
BRDA:47,4,15,1
BRDA:47,4,16,0
BRDA:47,5,18,1
BRDA:47,5,19,0
BRDA:47,8,24,0
BRDA:47,8,25,1
BRDA:50,0,3,2
BRDA:50,0,4,0
BRDA:50,2,8,2
BRDA:50,2,9,1
BRDA:52,4294967295,3,2
BRDA:52,4294967295,4,0
BRDA:53,4294967295,1,2
BRDA:53,4294967295,2,0
BRDA:53,0,4,0
BRDA:53,0,5,2
BRDA:53,1,7,-
BRDA:53,1,8,-
BRDA:53,2,11,-
BRDA:53,2,12,-
BRDA:53,3,14,-
BRDA:53,3,15,-
BRDA:55,4294967295,1,2
BRDA:55,4294967295,2,0
BRDA:57,4294967295,4,0
BRDA:57,4294967295,5,2
BRDA:57,0,7,-
BRDA:57,0,8,-
BRDA:57,1,10,-
BRDA:57,1,11,-
BRDA:57,2,14,-
BRDA:57,2,15,-
BRDA:57,3,17,-
BRDA:57,3,18,-
BRDA:59,0,2,6
BRDA:59,0,3,2
BRDA:60,0,3,6
BRDA:60,0,4,0
BRDA:60,1,6,0
BRDA:60,1,7,6
BRDA:60,2,9,-
BRDA:60,2,10,-
BRDA:60,3,13,-
BRDA:60,3,14,-
BRDA:60,4,16,-
BRDA:60,4,17,-
BRDA:63,0,2,2
BRDA:63,0,3,0
BRDA:63,1,6,2
BRDA:63,1,7,0
BRDA:63,2,10,2
BRDA:63,2,11,0
BRDA:63,3,14,2
BRDA:63,3,15,0
BRDA:63,6,18,0
BRDA:63,6,19,2
BRDA:63,7,21,-
BRDA:63,7,22,-
BRDA:63,8,24,-
BRDA:63,8,25,-
BRDA:63,9,28,-
BRDA:63,9,29,-
BRDA:63,10,31,-
BRDA:63,10,32,-
BRDA:67,4294967295,2,2
BRDA:67,4294967295,3,0
BRDA:67,0,6,2
BRDA:67,0,7,0
BRDA:67,1,10,2
BRDA:67,1,11,0
BRDA:67,2,14,2
BRDA:67,2,15,0
BRDA:67,5,18,0
BRDA:67,5,19,2
BRDA:67,6,21,-
BRDA:67,6,22,-
BRDA:67,7,24,-
BRDA:67,7,25,-
BRDA:67,8,28,-
BRDA:67,8,29,-
BRDA:67,9,31,-
BRDA:67,9,32,-
BRDA:71,4294967295,2,2
BRDA:71,4294967295,3,0
BRDA:71,0,6,2
BRDA:71,0,7,0
BRDA:71,1,10,2
BRDA:71,1,11,0
BRDA:71,2,14,2
BRDA:71,2,15,0
BRDA:71,5,18,0
BRDA:71,5,19,2
BRDA:71,6,21,-
BRDA:71,6,22,-
BRDA:71,7,24,-
BRDA:71,7,25,-
BRDA:71,8,28,-
BRDA:71,8,29,-
BRDA:71,9,31,-
BRDA:71,9,32,-
BRDA:79,0,3,3
BRDA:79,0,4,0
BRDA:84,4294967295,2,3
BRDA:84,4294967295,3,0
BRDA:84,0,6,3
BRDA:84,0,7,0
BRDA:86,3,1,3
BRDA:86,3,2,0
BRDA:86,4,3,3
BRDA:86,4,4,0
BRF:162
BRH:65
DA:27,3
DA:29,6
DA:30,6
DA:31,3
DA:32,6
DA:35,24
DA:37,6
DA:39,6
DA:40,6
DA:42,6
DA:43,3
DA:44,3
DA:46,3
DA:47,1
DA:50,5
DA:52,2
DA:53,2
DA:55,4
DA:57,2
DA:59,8
DA:60,6
DA:63,2
DA:66,0
DA:67,2
DA:70,0
DA:71,2
DA:74,0
DA:77,3
DA:79,3
DA:80,3
DA:81,3
DA:82,3
DA:83,3
DA:84,3
DA:85,3
DA:86,12
LF:36
LH:33
end_of_record
TN:
SF:/home/intel/ros2_overlay_ws/src/ros2_openvino_toolkit/sample/tests/service/unittest_peopleService.cpp
FN:29,_Z18generate_file_pathNSt7__cxx1112basic_stringIcSt11char_traitsIcESaIcEEE
FN:37,_ZN30UnitTestPeople_testPeople_TestD2Ev
FN:37,_ZN30UnitTestPeople_testPeople_TestD0Ev
FN:37,_ZN30UnitTestPeople_testPeople_TestC2Ev
FN:37,_ZN30UnitTestPeople_testPeople_Test8TestBodyEv
FN:69,main
FN:80,_Z41__static_initialization_and_destruction_0ii
FN:80,_GLOBAL__sub_I_unittest_peopleService.cpp
FNDA:3,_ZN30UnitTestPeople_testPeople_Test8TestBodyEv
FNDA:3,_GLOBAL__sub_I_unittest_peopleService.cpp
FNDA:3,_Z18generate_file_pathNSt7__cxx1112basic_stringIcSt11char_traitsIcESaIcEEE
FNDA:3,_ZN30UnitTestPeople_testPeople_TestC2Ev
FNDA:3,main
FNDA:3,_ZN30UnitTestPeople_testPeople_TestD0Ev
FNDA:3,_ZN30UnitTestPeople_testPeople_TestD2Ev
FNDA:3,_Z41__static_initialization_and_destruction_0ii
FNF:8
FNH:8
BRDA:31,0,2,3
BRDA:31,0,3,0
BRDA:32,4294967295,2,3
BRDA:32,4294967295,3,0
BRDA:33,4294967295,3,3
BRDA:33,4294967295,4,0
BRDA:34,4294967295,1,3
BRDA:34,4294967295,2,0
BRDA:34,0,4,3
BRDA:34,0,5,0
BRDA:37,4294967295,5,3
BRDA:37,4294967295,6,0
BRDA:37,0,8,3
BRDA:37,0,9,0
BRDA:37,1,11,3
BRDA:37,1,12,0
BRDA:39,0,1,3
BRDA:39,0,2,0
BRDA:41,0,4,3
BRDA:41,0,5,0
BRDA:41,1,7,3
BRDA:41,1,8,0
BRDA:41,6,13,2
BRDA:41,6,14,1
BRDA:42,4294967295,1,3
BRDA:42,4294967295,2,0
BRDA:42,3,4,2
BRDA:42,3,5,1
BRDA:44,0,2,3
BRDA:44,0,3,0
BRDA:44,1,5,3
BRDA:44,1,6,0
BRDA:44,6,10,2
BRDA:44,6,11,1
BRDA:45,4294967295,1,3
BRDA:45,4294967295,2,0
BRDA:45,0,4,3
BRDA:45,0,5,0
BRDA:46,0,2,3
BRDA:46,0,3,0
BRDA:48,0,3,3
BRDA:48,0,4,0
BRDA:48,1,5,1
BRDA:48,1,6,2
BRDA:49,0,2,1
BRDA:49,0,3,0
BRDA:49,1,5,1
BRDA:49,1,6,0
BRDA:49,2,8,1
BRDA:49,2,9,0
BRDA:49,3,11,1
BRDA:49,3,12,0
BRDA:49,4,15,1
BRDA:49,4,16,0
BRDA:49,5,18,1
BRDA:49,5,19,0
BRDA:49,8,24,0
BRDA:49,8,25,1
BRDA:52,0,3,2
BRDA:52,0,4,0
BRDA:52,2,8,2
BRDA:52,2,9,1
BRDA:54,4294967295,3,2
BRDA:54,4294967295,4,0
BRDA:55,4294967295,1,2
BRDA:55,4294967295,2,0
BRDA:55,0,4,0
BRDA:55,0,5,2
BRDA:55,1,7,-
BRDA:55,1,8,-
BRDA:55,2,11,-
BRDA:55,2,12,-
BRDA:55,3,14,-
BRDA:55,3,15,-
BRDA:57,4294967295,1,2
BRDA:57,4294967295,2,0
BRDA:59,4294967295,4,0
BRDA:59,4294967295,5,2
BRDA:59,0,7,-
BRDA:59,0,8,-
BRDA:59,1,10,-
BRDA:59,1,11,-
BRDA:59,2,14,-
BRDA:59,2,15,-
BRDA:59,3,17,-
BRDA:59,3,18,-
BRDA:61,0,2,16
BRDA:61,0,3,2
BRDA:62,0,3,16
BRDA:62,0,4,0
BRDA:62,1,6,0
BRDA:62,1,7,16
BRDA:62,2,9,-
BRDA:62,2,10,-
BRDA:62,3,13,-
BRDA:62,3,14,-
BRDA:62,4,16,-
BRDA:62,4,17,-
BRDA:63,4294967295,5,0
BRDA:63,4294967295,6,16
BRDA:63,0,8,-
BRDA:63,0,9,-
BRDA:63,1,11,-
BRDA:63,1,12,-
BRDA:63,2,15,-
BRDA:63,2,16,-
BRDA:63,3,18,-
BRDA:63,3,19,-
BRDA:64,4294967295,4,0
BRDA:64,4294967295,5,16
BRDA:64,0,7,-
BRDA:64,0,8,-
BRDA:64,1,10,-
BRDA:64,1,11,-
BRDA:64,2,14,-
BRDA:64,2,15,-
BRDA:64,3,17,-
BRDA:64,3,18,-
BRDA:65,4294967295,5,0
BRDA:65,4294967295,6,16
BRDA:65,0,8,-
BRDA:65,0,9,-
BRDA:65,1,11,-
BRDA:65,1,12,-
BRDA:65,2,15,-
BRDA:65,2,16,-
BRDA:65,3,18,-
BRDA:65,3,19,-
BRDA:71,0,1,3
BRDA:71,0,2,0
BRDA:71,1,4,3
BRDA:71,1,5,0
BRDA:71,2,7,3
BRDA:71,2,8,0
BRDA:72,4294967295,1,3
BRDA:72,4294967295,2,0
BRDA:74,0,1,3
BRDA:74,0,2,0
BRDA:75,0,2,3
BRDA:75,0,3,0
BRDA:75,1,5,3
BRDA:75,1,6,0
BRDA:76,4294967295,1,3
BRDA:76,4294967295,2,0
BRDA:77,0,1,3
BRDA:77,0,2,0
BRDA:78,0,2,3
BRDA:78,0,3,0
BRDA:78,1,6,3
BRDA:78,1,7,0
BRDA:80,3,1,3
BRDA:80,3,2,0
BRDA:80,4,3,3
BRDA:80,4,4,0
BRF:154
BRH:61
DA:29,3
DA:31,6
DA:32,6
DA:33,3
DA:34,6
DA:37,24
DA:39,6
DA:41,6
DA:42,6
DA:44,6
DA:45,3
DA:46,3
DA:48,3
DA:49,1
DA:52,5
DA:54,2
DA:55,2
DA:57,4
DA:59,2
DA:61,18
DA:62,16
DA:63,16
DA:64,16
DA:65,16
DA:69,3
DA:71,3
DA:72,3
DA:73,3
DA:74,3
DA:75,3
DA:76,3
DA:77,3
DA:78,3
DA:79,3
DA:80,12
LF:35
LH:35
end_of_record
TN:
SF:/home/intel/ros2_overlay_ws/src/ros2_openvino_toolkit/sample/tests/topic/unittest_faceDetectionCheck.cpp
FN:53,_Z15wait_for_futureINSt6chrono8durationIlSt5ratioILl1ELl1EEEEEvRN6rclcpp8executor8ExecutorERSt13shared_futureIbERKT_
FN:69,_ZN44UnitTestFaceDetection_testFaceDetection_TestD0Ev
FN:69,_ZN44UnitTestFaceDetection_testFaceDetection_TestC2Ev
FN:69,_ZN44UnitTestFaceDetection_testFaceDetection_Test8TestBodyEv
FN:69,_ZN44UnitTestFaceDetection_testFaceDetection_TestD2Ev
FN:77,_ZZN44UnitTestFaceDetection_testFaceDetection_Test8TestBodyEvENKUlSt10shared_ptrIN11object_msgs3msg15ObjectsInBoxes_ISaIvEEEEE_clES6_
FN:97,_ZN47UnitTestFaceDetection_testEmotionDetection_Test8TestBodyEv
FN:97,_ZN47UnitTestFaceDetection_testEmotionDetection_TestD2Ev
FN:97,_ZN47UnitTestFaceDetection_testEmotionDetection_TestD0Ev
FN:97,_ZN47UnitTestFaceDetection_testEmotionDetection_TestC2Ev
FN:105,_ZZN47UnitTestFaceDetection_testEmotionDetection_Test8TestBodyEvENKUlSt10shared_ptrIN11people_msgs3msg16EmotionsStamped_ISaIvEEEEE_clES6_
FN:125,_ZN49UnitTestFaceDetection_testageGenderDetection_TestC2Ev
FN:125,_ZN49UnitTestFaceDetection_testageGenderDetection_TestD2Ev
FN:125,_ZN49UnitTestFaceDetection_testageGenderDetection_Test8TestBodyEv
FN:125,_ZN49UnitTestFaceDetection_testageGenderDetection_TestD0Ev
FN:133,_ZZN49UnitTestFaceDetection_testageGenderDetection_Test8TestBodyEvENKUlSt10shared_ptrIN11people_msgs3msg17AgeGenderStamped_ISaIvEEEEE_clES6_
FN:153,_ZN48UnitTestFaceDetection_testheadPoseDetection_TestD2Ev
FN:153,_ZN48UnitTestFaceDetection_testheadPoseDetection_TestD0Ev
FN:153,_ZN48UnitTestFaceDetection_testheadPoseDetection_TestC2Ev
FN:153,_ZN48UnitTestFaceDetection_testheadPoseDetection_Test8TestBodyEv
FN:161,_ZZN48UnitTestFaceDetection_testheadPoseDetection_Test8TestBodyEvENKUlSt10shared_ptrIN11people_msgs3msg16HeadPoseStamped_ISaIvEEEEE_clES6_
FN:181,main
FN:192,_GLOBAL__sub_I_unittest_faceDetectionCheck.cpp
FN:192,_Z41__static_initialization_and_destruction_0ii
FNDA:3,_ZN47UnitTestFaceDetection_testEmotionDetection_TestD0Ev
FNDA:3,_ZN48UnitTestFaceDetection_testheadPoseDetection_TestC2Ev
FNDA:3,_ZN47UnitTestFaceDetection_testEmotionDetection_TestD2Ev
FNDA:3,_ZN49UnitTestFaceDetection_testageGenderDetection_TestC2Ev
FNDA:3,_ZN49UnitTestFaceDetection_testageGenderDetection_TestD2Ev
FNDA:3,_ZN48UnitTestFaceDetection_testheadPoseDetection_Test8TestBodyEv
FNDA:3,_ZN47UnitTestFaceDetection_testEmotionDetection_TestC2Ev
FNDA:2,_ZZN49UnitTestFaceDetection_testageGenderDetection_Test8TestBodyEvENKUlSt10shared_ptrIN11people_msgs3msg17AgeGenderStamped_ISaIvEEEEE_clES6_
FNDA:3,_ZN49UnitTestFaceDetection_testageGenderDetection_TestD0Ev
FNDA:2,_ZZN47UnitTestFaceDetection_testEmotionDetection_Test8TestBodyEvENKUlSt10shared_ptrIN11people_msgs3msg16EmotionsStamped_ISaIvEEEEE_clES6_
FNDA:3,_ZN49UnitTestFaceDetection_testageGenderDetection_Test8TestBodyEv
FNDA:2,_ZZN48UnitTestFaceDetection_testheadPoseDetection_Test8TestBodyEvENKUlSt10shared_ptrIN11people_msgs3msg16HeadPoseStamped_ISaIvEEEEE_clES6_
FNDA:3,_ZN44UnitTestFaceDetection_testFaceDetection_TestD2Ev
FNDA:3,_ZN44UnitTestFaceDetection_testFaceDetection_TestD0Ev
FNDA:2,_ZZN44UnitTestFaceDetection_testFaceDetection_Test8TestBodyEvENKUlSt10shared_ptrIN11object_msgs3msg15ObjectsInBoxes_ISaIvEEEEE_clES6_
FNDA:3,_ZN48UnitTestFaceDetection_testheadPoseDetection_TestD2Ev
FNDA:3,_ZN44UnitTestFaceDetection_testFaceDetection_Test8TestBodyEv
FNDA:3,main
FNDA:3,_ZN44UnitTestFaceDetection_testFaceDetection_TestC2Ev
FNDA:3,_ZN48UnitTestFaceDetection_testheadPoseDetection_TestD0Ev
FNDA:3,_ZN47UnitTestFaceDetection_testEmotionDetection_Test8TestBodyEv
FNDA:12,_Z15wait_for_futureINSt6chrono8durationIlSt5ratioILl1ELl1EEEEEvRN6rclcpp8executor8ExecutorERSt13shared_futureIbERKT_
FNDA:3,_Z41__static_initialization_and_destruction_0ii
FNDA:3,_GLOBAL__sub_I_unittest_faceDetectionCheck.cpp
FNF:24
FNH:24
BRDA:60,4294967295,1,12
BRDA:60,4294967295,2,0
BRDA:61,0,2,12
BRDA:61,0,3,0
BRDA:62,0,1,12
BRDA:62,0,2,0
BRDA:62,1,4,4
BRDA:62,1,5,8
BRDA:62,2,7,4
BRDA:62,2,8,0
BRDA:62,3,10,4
BRDA:62,3,11,0
BRDA:62,4,14,4
BRDA:62,4,15,0
BRDA:62,5,17,4
BRDA:62,5,18,0
BRDA:63,0,1,4
BRDA:63,0,2,0
BRDA:64,4294967295,1,4
BRDA:64,4294967295,2,0
BRDA:65,0,1,4
BRDA:65,0,2,0
BRDA:65,2,5,4
BRDA:65,2,6,0
BRDA:69,4294967295,5,3
BRDA:69,4294967295,6,0
BRDA:69,0,8,3
BRDA:69,0,9,0
BRDA:69,1,11,3
BRDA:69,1,12,0
BRDA:71,0,1,3
BRDA:71,0,2,0
BRDA:72,0,1,3
BRDA:72,0,2,0
BRDA:72,1,4,3
BRDA:72,1,5,0
BRDA:72,2,7,3
BRDA:72,2,8,0
BRDA:73,0,1,3
BRDA:73,0,2,0
BRDA:74,0,1,3
BRDA:74,0,2,0
BRDA:79,0,1,2
BRDA:79,0,2,0
BRDA:82,4294967295,1,3
BRDA:82,4294967295,2,0
BRDA:82,0,4,3
BRDA:82,0,5,0
BRDA:83,4294967295,2,3
BRDA:83,4294967295,3,0
BRDA:87,4294967295,5,3
BRDA:87,4294967295,6,0
BRDA:87,0,8,3
BRDA:87,0,9,0
BRDA:89,4294967295,2,3
BRDA:89,4294967295,3,0
BRDA:89,0,5,3
BRDA:89,0,6,0
BRDA:91,0,2,3
BRDA:91,0,3,0
BRDA:93,0,2,1
BRDA:93,0,3,2
BRDA:93,1,5,1
BRDA:93,1,6,0
BRDA:93,2,8,1
BRDA:93,2,9,0
BRDA:93,3,12,1
BRDA:93,3,13,0
BRDA:93,4,15,1
BRDA:93,4,16,0
BRDA:97,4294967295,5,3
BRDA:97,4294967295,6,0
BRDA:97,0,8,3
BRDA:97,0,9,0
BRDA:97,1,11,3
BRDA:97,1,12,0
BRDA:99,0,1,3
BRDA:99,0,2,0
BRDA:100,0,1,3
BRDA:100,0,2,0
BRDA:100,1,4,3
BRDA:100,1,5,0
BRDA:100,2,7,3
BRDA:100,2,8,0
BRDA:101,0,1,3
BRDA:101,0,2,0
BRDA:102,0,1,3
BRDA:102,0,2,0
BRDA:107,0,1,2
BRDA:107,0,2,0
BRDA:110,4294967295,1,3
BRDA:110,4294967295,2,0
BRDA:110,0,4,3
BRDA:110,0,5,0
BRDA:111,4294967295,2,3
BRDA:111,4294967295,3,0
BRDA:115,4294967295,5,3
BRDA:115,4294967295,6,0
BRDA:115,0,8,3
BRDA:115,0,9,0
BRDA:117,4294967295,2,3
BRDA:117,4294967295,3,0
BRDA:117,0,5,3
BRDA:117,0,6,0
BRDA:119,0,2,3
BRDA:119,0,3,0
BRDA:121,0,2,1
BRDA:121,0,3,2
BRDA:121,1,5,1
BRDA:121,1,6,0
BRDA:121,2,8,1
BRDA:121,2,9,0
BRDA:121,3,12,1
BRDA:121,3,13,0
BRDA:121,4,15,1
BRDA:121,4,16,0
BRDA:125,4294967295,5,3
BRDA:125,4294967295,6,0
BRDA:125,0,8,3
BRDA:125,0,9,0
BRDA:125,1,11,3
BRDA:125,1,12,0
BRDA:127,0,1,3
BRDA:127,0,2,0
BRDA:128,0,1,3
BRDA:128,0,2,0
BRDA:128,1,4,3
BRDA:128,1,5,0
BRDA:128,2,7,3
BRDA:128,2,8,0
BRDA:129,0,1,3
BRDA:129,0,2,0
BRDA:130,0,1,3
BRDA:130,0,2,0
BRDA:135,0,1,2
BRDA:135,0,2,0
BRDA:138,4294967295,1,3
BRDA:138,4294967295,2,0
BRDA:138,0,4,3
BRDA:138,0,5,0
BRDA:139,4294967295,2,3
BRDA:139,4294967295,3,0
BRDA:143,4294967295,5,3
BRDA:143,4294967295,6,0
BRDA:143,0,8,3
BRDA:143,0,9,0
BRDA:145,4294967295,2,3
BRDA:145,4294967295,3,0
BRDA:145,0,5,3
BRDA:145,0,6,0
BRDA:147,0,2,3
BRDA:147,0,3,0
BRDA:149,0,2,1
BRDA:149,0,3,2
BRDA:149,1,5,1
BRDA:149,1,6,0
BRDA:149,2,8,1
BRDA:149,2,9,0
BRDA:149,3,12,1
BRDA:149,3,13,0
BRDA:149,4,15,1
BRDA:149,4,16,0
BRDA:153,4294967295,5,3
BRDA:153,4294967295,6,0
BRDA:153,0,8,3
BRDA:153,0,9,0
BRDA:153,1,11,3
BRDA:153,1,12,0
BRDA:155,0,1,3
BRDA:155,0,2,0
BRDA:156,0,1,3
BRDA:156,0,2,0
BRDA:156,1,4,3
BRDA:156,1,5,0
BRDA:156,2,7,3
BRDA:156,2,8,0
BRDA:157,0,1,3
BRDA:157,0,2,0
BRDA:158,0,1,3
BRDA:158,0,2,0
BRDA:163,0,1,2
BRDA:163,0,2,0
BRDA:166,4294967295,1,3
BRDA:166,4294967295,2,0
BRDA:166,0,4,3
BRDA:166,0,5,0
BRDA:167,4294967295,2,3
BRDA:167,4294967295,3,0
BRDA:171,4294967295,5,3
BRDA:171,4294967295,6,0
BRDA:171,0,8,3
BRDA:171,0,9,0
BRDA:173,4294967295,2,3
BRDA:173,4294967295,3,0
BRDA:173,0,5,3
BRDA:173,0,6,0
BRDA:175,0,2,3
BRDA:175,0,3,0
BRDA:177,0,2,1
BRDA:177,0,3,2
BRDA:177,1,5,1
BRDA:177,1,6,0
BRDA:177,2,8,1
BRDA:177,2,9,0
BRDA:177,3,12,1
BRDA:177,3,13,0
BRDA:177,4,15,1
BRDA:177,4,16,0
BRDA:183,0,1,3
BRDA:183,0,2,0
BRDA:184,0,1,3
BRDA:184,0,2,0
BRDA:184,1,4,3
BRDA:184,1,5,0
BRDA:184,2,7,3
BRDA:184,2,8,0
BRDA:186,4294967295,1,3
BRDA:186,4294967295,2,0
BRDA:187,0,1,3
BRDA:187,0,2,0
BRDA:188,0,2,3
BRDA:188,0,3,0
BRDA:188,1,5,3
BRDA:188,1,6,0
BRDA:189,4294967295,1,3
BRDA:189,4294967295,2,0
BRDA:190,0,2,3
BRDA:190,0,3,0
BRDA:190,1,6,3
BRDA:190,1,7,0
BRDA:192,3,1,3
BRDA:192,3,2,0
BRDA:192,4,3,3
BRDA:192,4,4,0
BRF:234
BRH:122
DA:53,12
DA:59,12
DA:60,12
DA:61,12
DA:62,16
DA:63,4
DA:64,4
DA:65,8
DA:67,12
DA:69,24
DA:71,6
DA:72,3
DA:73,6
DA:74,6
DA:77,2
DA:78,2
DA:79,2
DA:80,2
DA:82,6
DA:83,3
DA:87,6
DA:89,89
DA:91,3
DA:93,3
DA:95,3
DA:97,24
DA:99,6
DA:100,3
DA:101,6
DA:102,6
DA:105,2
DA:106,2
DA:107,2
DA:108,2
DA:110,6
DA:111,3
DA:115,6
DA:117,3
DA:119,3
DA:121,3
DA:123,3
DA:125,24
DA:127,6
DA:128,3
DA:129,6
DA:130,6
DA:133,2
DA:134,2
DA:135,2
DA:136,2
DA:138,6
DA:139,3
DA:143,6
DA:145,3
DA:147,3
DA:149,3
DA:151,3
DA:153,24
DA:155,6
DA:156,3
DA:157,6
DA:158,6
DA:161,2
DA:162,2
DA:163,2
DA:164,2
DA:166,6
DA:167,3
DA:171,6
DA:173,3
DA:175,3
DA:177,3
DA:179,3
DA:181,3
DA:183,3
DA:184,3
DA:185,3
DA:186,3
DA:187,3
DA:188,3
DA:189,3
DA:190,3
DA:191,3
DA:192,12
LF:84
LH:84
end_of_record
TN:
SF:/home/intel/ros2_overlay_ws/src/ros2_openvino_toolkit/sample/tests/topic/unittest_face_reidentification.cpp
FN:49,_Z15wait_for_futureINSt6chrono8durationIlSt5ratioILl1ELl1EEEEEvRN6rclcpp8executor8ExecutorERSt13shared_futureIbERKT_
FN:65,_ZN56UnitTestPersonReidentification_testReidentification_Test8TestBodyEv
FN:65,_ZN56UnitTestPersonReidentification_testReidentification_TestC2Ev
FN:65,_ZN56UnitTestPersonReidentification_testReidentification_TestD2Ev
FN:65,_ZN56UnitTestPersonReidentification_testReidentification_TestD0Ev
FN:73,_ZZN56UnitTestPersonReidentification_testReidentification_Test8TestBodyEvENKUlSt10shared_ptrIN11people_msgs3msg16LandmarkStamped_ISaIvEEEEE_clES6_
FN:93,main
FN:104,_GLOBAL__sub_I_unittest_face_reidentification.cpp
FN:104,_Z41__static_initialization_and_destruction_0ii
FNDA:3,_Z41__static_initialization_and_destruction_0ii
FNDA:3,_ZN56UnitTestPersonReidentification_testReidentification_TestD0Ev
FNDA:3,_ZN56UnitTestPersonReidentification_testReidentification_TestD2Ev
FNDA:2,_ZZN56UnitTestPersonReidentification_testReidentification_Test8TestBodyEvENKUlSt10shared_ptrIN11people_msgs3msg16LandmarkStamped_ISaIvEEEEE_clES6_
FNDA:3,main
FNDA:3,_GLOBAL__sub_I_unittest_face_reidentification.cpp
FNDA:3,_Z15wait_for_futureINSt6chrono8durationIlSt5ratioILl1ELl1EEEEEvRN6rclcpp8executor8ExecutorERSt13shared_futureIbERKT_
FNDA:3,_ZN56UnitTestPersonReidentification_testReidentification_TestC2Ev
FNDA:3,_ZN56UnitTestPersonReidentification_testReidentification_Test8TestBodyEv
FNF:9
FNH:9
BRDA:56,4294967295,1,3
BRDA:56,4294967295,2,0
BRDA:57,0,2,3
BRDA:57,0,3,0
BRDA:58,0,1,3
BRDA:58,0,2,0
BRDA:58,1,4,1
BRDA:58,1,5,2
BRDA:58,2,7,1
BRDA:58,2,8,0
BRDA:58,3,10,1
BRDA:58,3,11,0
BRDA:58,4,14,1
BRDA:58,4,15,0
BRDA:58,5,17,1
BRDA:58,5,18,0
BRDA:59,0,1,1
BRDA:59,0,2,0
BRDA:60,4294967295,1,1
BRDA:60,4294967295,2,0
BRDA:61,0,1,1
BRDA:61,0,2,0
BRDA:61,2,5,1
BRDA:61,2,6,0
BRDA:65,4294967295,5,3
BRDA:65,4294967295,6,0
BRDA:65,0,8,3
BRDA:65,0,9,0
BRDA:65,1,11,3
BRDA:65,1,12,0
BRDA:67,0,1,3
BRDA:67,0,2,0
BRDA:68,0,1,3
BRDA:68,0,2,0
BRDA:68,1,4,3
BRDA:68,1,5,0
BRDA:68,2,7,3
BRDA:68,2,8,0
BRDA:69,0,1,3
BRDA:69,0,2,0
BRDA:70,0,1,3
BRDA:70,0,2,0
BRDA:75,0,1,2
BRDA:75,0,2,0
BRDA:78,4294967295,1,3
BRDA:78,4294967295,2,0
BRDA:78,0,4,3
BRDA:78,0,5,0
BRDA:79,4294967295,2,3
BRDA:79,4294967295,3,0
BRDA:83,4294967295,5,3
BRDA:83,4294967295,6,0
BRDA:83,0,8,3
BRDA:83,0,9,0
BRDA:85,4294967295,2,3
BRDA:85,4294967295,3,0
BRDA:85,0,5,3
BRDA:85,0,6,0
BRDA:87,0,2,3
BRDA:87,0,3,0
BRDA:89,0,2,1
BRDA:89,0,3,2
BRDA:89,1,5,1
BRDA:89,1,6,0
BRDA:89,2,8,1
BRDA:89,2,9,0
BRDA:89,3,12,1
BRDA:89,3,13,0
BRDA:89,4,15,1
BRDA:89,4,16,0
BRDA:95,0,1,3
BRDA:95,0,2,0
BRDA:96,0,1,3
BRDA:96,0,2,0
BRDA:96,1,4,3
BRDA:96,1,5,0
BRDA:96,2,7,3
BRDA:96,2,8,0
BRDA:98,4294967295,1,3
BRDA:98,4294967295,2,0
BRDA:99,0,1,3
BRDA:99,0,2,0
BRDA:100,0,2,3
BRDA:100,0,3,0
BRDA:100,1,5,3
BRDA:100,1,6,0
BRDA:101,4294967295,1,3
BRDA:101,4294967295,2,0
BRDA:102,0,2,3
BRDA:102,0,3,0
BRDA:102,1,6,3
BRDA:102,1,7,0
BRDA:104,3,1,3
BRDA:104,3,2,0
BRDA:104,4,3,3
BRDA:104,4,4,0
BRF:96
BRH:50
DA:49,3
DA:55,3
DA:56,3
DA:57,3
DA:58,4
DA:59,1
DA:60,1
DA:61,2
DA:63,3
DA:65,24
DA:67,6
DA:68,3
DA:69,6
DA:70,6
DA:73,2
DA:74,2
DA:75,2
DA:76,2
DA:78,6
DA:79,3
DA:83,6
DA:85,29
DA:87,3
DA:89,3
DA:91,3
DA:93,3
DA:95,3
DA:96,3
DA:97,3
DA:98,3
DA:99,3
DA:100,3
DA:101,3
DA:102,3
DA:103,3
DA:104,12
LF:36
LH:36
end_of_record
TN:
SF:/home/intel/ros2_overlay_ws/src/ros2_openvino_toolkit/sample/tests/topic/unittest_imageCheck.cpp
FN:53,_Z15wait_for_futureINSt6chrono8durationIlSt5ratioILl1ELl1EEEEEvRN6rclcpp8executor8ExecutorERSt13shared_futureIbERKT_
FN:69,_ZN44UnitTestFaceDetection_testFaceDetection_TestD2Ev
FN:69,_ZN44UnitTestFaceDetection_testFaceDetection_Test8TestBodyEv
FN:69,_ZN44UnitTestFaceDetection_testFaceDetection_TestC2Ev
FN:69,_ZN44UnitTestFaceDetection_testFaceDetection_TestD0Ev
FN:77,_ZZN44UnitTestFaceDetection_testFaceDetection_Test8TestBodyEvENKUlSt10shared_ptrIN11object_msgs3msg15ObjectsInBoxes_ISaIvEEEEE_clES6_
FN:97,_ZN47UnitTestFaceDetection_testEmotionDetection_TestC2Ev
FN:97,_ZN47UnitTestFaceDetection_testEmotionDetection_TestD0Ev
FN:97,_ZN47UnitTestFaceDetection_testEmotionDetection_TestD2Ev
FN:97,_ZN47UnitTestFaceDetection_testEmotionDetection_Test8TestBodyEv
FN:105,_ZZN47UnitTestFaceDetection_testEmotionDetection_Test8TestBodyEvENKUlSt10shared_ptrIN11people_msgs3msg16EmotionsStamped_ISaIvEEEEE_clES6_
FN:125,_ZN49UnitTestFaceDetection_testageGenderDetection_TestD0Ev
FN:125,_ZN49UnitTestFaceDetection_testageGenderDetection_Test8TestBodyEv
FN:125,_ZN49UnitTestFaceDetection_testageGenderDetection_TestD2Ev
FN:125,_ZN49UnitTestFaceDetection_testageGenderDetection_TestC2Ev
FN:133,_ZZN49UnitTestFaceDetection_testageGenderDetection_Test8TestBodyEvENKUlSt10shared_ptrIN11people_msgs3msg17AgeGenderStamped_ISaIvEEEEE_clES6_
FN:153,_ZN48UnitTestFaceDetection_testheadPoseDetection_Test8TestBodyEv
FN:153,_ZN48UnitTestFaceDetection_testheadPoseDetection_TestC2Ev
FN:153,_ZN48UnitTestFaceDetection_testheadPoseDetection_TestD0Ev
FN:153,_ZN48UnitTestFaceDetection_testheadPoseDetection_TestD2Ev
FN:161,_ZZN48UnitTestFaceDetection_testheadPoseDetection_Test8TestBodyEvENKUlSt10shared_ptrIN11people_msgs3msg16HeadPoseStamped_ISaIvEEEEE_clES6_
FN:181,main
FN:192,_GLOBAL__sub_I_unittest_imageCheck.cpp
FN:192,_Z41__static_initialization_and_destruction_0ii
FNDA:3,_ZN47UnitTestFaceDetection_testEmotionDetection_TestD0Ev
FNDA:3,_ZN48UnitTestFaceDetection_testheadPoseDetection_TestC2Ev
FNDA:3,_ZN47UnitTestFaceDetection_testEmotionDetection_TestD2Ev
FNDA:3,_ZN49UnitTestFaceDetection_testageGenderDetection_TestC2Ev
FNDA:2,_ZZN49UnitTestFaceDetection_testageGenderDetection_Test8TestBodyEvENKUlSt10shared_ptrIN11people_msgs3msg17AgeGenderStamped_ISaIvEEEEE_clES6_
FNDA:3,_ZN49UnitTestFaceDetection_testageGenderDetection_TestD2Ev
FNDA:3,_ZN48UnitTestFaceDetection_testheadPoseDetection_Test8TestBodyEv
FNDA:3,_ZN47UnitTestFaceDetection_testEmotionDetection_TestC2Ev
FNDA:2,_ZZN47UnitTestFaceDetection_testEmotionDetection_Test8TestBodyEvENKUlSt10shared_ptrIN11people_msgs3msg16EmotionsStamped_ISaIvEEEEE_clES6_
FNDA:3,_GLOBAL__sub_I_unittest_imageCheck.cpp
FNDA:3,_ZN49UnitTestFaceDetection_testageGenderDetection_TestD0Ev
FNDA:2,_ZZN48UnitTestFaceDetection_testheadPoseDetection_Test8TestBodyEvENKUlSt10shared_ptrIN11people_msgs3msg16HeadPoseStamped_ISaIvEEEEE_clES6_
FNDA:3,_ZN44UnitTestFaceDetection_testFaceDetection_TestD2Ev
FNDA:3,_ZN49UnitTestFaceDetection_testageGenderDetection_Test8TestBodyEv
FNDA:3,_ZN44UnitTestFaceDetection_testFaceDetection_TestD0Ev
FNDA:2,_ZZN44UnitTestFaceDetection_testFaceDetection_Test8TestBodyEvENKUlSt10shared_ptrIN11object_msgs3msg15ObjectsInBoxes_ISaIvEEEEE_clES6_
FNDA:3,_ZN48UnitTestFaceDetection_testheadPoseDetection_TestD2Ev
FNDA:3,main
FNDA:3,_ZN44UnitTestFaceDetection_testFaceDetection_Test8TestBodyEv
FNDA:3,_ZN48UnitTestFaceDetection_testheadPoseDetection_TestD0Ev
FNDA:12,_Z15wait_for_futureINSt6chrono8durationIlSt5ratioILl1ELl1EEEEEvRN6rclcpp8executor8ExecutorERSt13shared_futureIbERKT_
FNDA:3,_ZN47UnitTestFaceDetection_testEmotionDetection_Test8TestBodyEv
FNDA:3,_ZN44UnitTestFaceDetection_testFaceDetection_TestC2Ev
FNDA:3,_Z41__static_initialization_and_destruction_0ii
FNF:24
FNH:24
BRDA:60,4294967295,1,12
BRDA:60,4294967295,2,0
BRDA:61,0,2,12
BRDA:61,0,3,0
BRDA:62,0,1,12
BRDA:62,0,2,0
BRDA:62,1,4,4
BRDA:62,1,5,8
BRDA:62,2,7,4
BRDA:62,2,8,0
BRDA:62,3,10,4
BRDA:62,3,11,0
BRDA:62,4,14,4
BRDA:62,4,15,0
BRDA:62,5,17,4
BRDA:62,5,18,0
BRDA:63,0,1,4
BRDA:63,0,2,0
BRDA:64,4294967295,1,4
BRDA:64,4294967295,2,0
BRDA:65,0,1,4
BRDA:65,0,2,0
BRDA:65,2,5,4
BRDA:65,2,6,0
BRDA:69,4294967295,5,3
BRDA:69,4294967295,6,0
BRDA:69,0,8,3
BRDA:69,0,9,0
BRDA:69,1,11,3
BRDA:69,1,12,0
BRDA:71,0,1,3
BRDA:71,0,2,0
BRDA:72,0,1,3
BRDA:72,0,2,0
BRDA:72,1,4,3
BRDA:72,1,5,0
BRDA:72,2,7,3
BRDA:72,2,8,0
BRDA:73,0,1,3
BRDA:73,0,2,0
BRDA:74,0,1,3
BRDA:74,0,2,0
BRDA:79,0,1,2
BRDA:79,0,2,0
BRDA:82,4294967295,1,3
BRDA:82,4294967295,2,0
BRDA:82,0,4,3
BRDA:82,0,5,0
BRDA:83,4294967295,2,3
BRDA:83,4294967295,3,0
BRDA:87,4294967295,5,3
BRDA:87,4294967295,6,0
BRDA:87,0,8,3
BRDA:87,0,9,0
BRDA:89,4294967295,2,3
BRDA:89,4294967295,3,0
BRDA:89,0,5,3
BRDA:89,0,6,0
BRDA:91,0,2,3
BRDA:91,0,3,0
BRDA:93,0,2,1
BRDA:93,0,3,2
BRDA:93,1,5,1
BRDA:93,1,6,0
BRDA:93,2,8,1
BRDA:93,2,9,0
BRDA:93,3,12,1
BRDA:93,3,13,0
BRDA:93,4,15,1
BRDA:93,4,16,0
BRDA:97,4294967295,5,3
BRDA:97,4294967295,6,0
BRDA:97,0,8,3
BRDA:97,0,9,0
BRDA:97,1,11,3
BRDA:97,1,12,0
BRDA:99,0,1,3
BRDA:99,0,2,0
BRDA:100,0,1,3
BRDA:100,0,2,0
BRDA:100,1,4,3
BRDA:100,1,5,0
BRDA:100,2,7,3
BRDA:100,2,8,0
BRDA:101,0,1,3
BRDA:101,0,2,0
BRDA:102,0,1,3
BRDA:102,0,2,0
BRDA:107,0,1,2
BRDA:107,0,2,0
BRDA:110,4294967295,1,3
BRDA:110,4294967295,2,0
BRDA:110,0,4,3
BRDA:110,0,5,0
BRDA:111,4294967295,2,3
BRDA:111,4294967295,3,0
BRDA:115,4294967295,5,3
BRDA:115,4294967295,6,0
BRDA:115,0,8,3
BRDA:115,0,9,0
BRDA:117,4294967295,2,3
BRDA:117,4294967295,3,0
BRDA:117,0,5,3
BRDA:117,0,6,0
BRDA:119,0,2,3
BRDA:119,0,3,0
BRDA:121,0,2,1
BRDA:121,0,3,2
BRDA:121,1,5,1
BRDA:121,1,6,0
BRDA:121,2,8,1
BRDA:121,2,9,0
BRDA:121,3,12,1
BRDA:121,3,13,0
BRDA:121,4,15,1
BRDA:121,4,16,0
BRDA:125,4294967295,5,3
BRDA:125,4294967295,6,0
BRDA:125,0,8,3
BRDA:125,0,9,0
BRDA:125,1,11,3
BRDA:125,1,12,0
BRDA:127,0,1,3
BRDA:127,0,2,0
BRDA:128,0,1,3
BRDA:128,0,2,0
BRDA:128,1,4,3
BRDA:128,1,5,0
BRDA:128,2,7,3
BRDA:128,2,8,0
BRDA:129,0,1,3
BRDA:129,0,2,0
BRDA:130,0,1,3
BRDA:130,0,2,0
BRDA:135,0,1,2
BRDA:135,0,2,0
BRDA:138,4294967295,1,3
BRDA:138,4294967295,2,0
BRDA:138,0,4,3
BRDA:138,0,5,0
BRDA:139,4294967295,2,3
BRDA:139,4294967295,3,0
BRDA:143,4294967295,5,3
BRDA:143,4294967295,6,0
BRDA:143,0,8,3
BRDA:143,0,9,0
BRDA:145,4294967295,2,3
BRDA:145,4294967295,3,0
BRDA:145,0,5,3
BRDA:145,0,6,0
BRDA:147,0,2,3
BRDA:147,0,3,0
BRDA:149,0,2,1
BRDA:149,0,3,2
BRDA:149,1,5,1
BRDA:149,1,6,0
BRDA:149,2,8,1
BRDA:149,2,9,0
BRDA:149,3,12,1
BRDA:149,3,13,0
BRDA:149,4,15,1
BRDA:149,4,16,0
BRDA:153,4294967295,5,3
BRDA:153,4294967295,6,0
BRDA:153,0,8,3
BRDA:153,0,9,0
BRDA:153,1,11,3
BRDA:153,1,12,0
BRDA:155,0,1,3
BRDA:155,0,2,0
BRDA:156,0,1,3
BRDA:156,0,2,0
BRDA:156,1,4,3
BRDA:156,1,5,0
BRDA:156,2,7,3
BRDA:156,2,8,0
BRDA:157,0,1,3
BRDA:157,0,2,0
BRDA:158,0,1,3
BRDA:158,0,2,0
BRDA:163,0,1,2
BRDA:163,0,2,0
BRDA:166,4294967295,1,3
BRDA:166,4294967295,2,0
BRDA:166,0,4,3
BRDA:166,0,5,0
BRDA:167,4294967295,2,3
BRDA:167,4294967295,3,0
BRDA:171,4294967295,5,3
BRDA:171,4294967295,6,0
BRDA:171,0,8,3
BRDA:171,0,9,0
BRDA:173,4294967295,2,3
BRDA:173,4294967295,3,0
BRDA:173,0,5,3
BRDA:173,0,6,0
BRDA:175,0,2,3
BRDA:175,0,3,0
BRDA:177,0,2,1
BRDA:177,0,3,2
BRDA:177,1,5,1
BRDA:177,1,6,0
BRDA:177,2,8,1
BRDA:177,2,9,0
BRDA:177,3,12,1
BRDA:177,3,13,0
BRDA:177,4,15,1
BRDA:177,4,16,0
BRDA:183,0,1,3
BRDA:183,0,2,0
BRDA:184,0,1,3
BRDA:184,0,2,0
BRDA:184,1,4,3
BRDA:184,1,5,0
BRDA:184,2,7,3
BRDA:184,2,8,0
BRDA:186,4294967295,1,3
BRDA:186,4294967295,2,0
BRDA:187,0,1,3
BRDA:187,0,2,0
BRDA:188,0,2,3
BRDA:188,0,3,0
BRDA:188,1,5,3
BRDA:188,1,6,0
BRDA:189,4294967295,1,3
BRDA:189,4294967295,2,0
BRDA:190,0,2,3
BRDA:190,0,3,0
BRDA:190,1,6,3
BRDA:190,1,7,0
BRDA:192,3,1,3
BRDA:192,3,2,0
BRDA:192,4,3,3
BRDA:192,4,4,0
BRF:234
BRH:122
DA:53,12
DA:59,12
DA:60,12
DA:61,12
DA:62,16
DA:63,4
DA:64,4
DA:65,8
DA:67,12
DA:69,24
DA:71,6
DA:72,3
DA:73,6
DA:74,6
DA:77,2
DA:78,2
DA:79,2
DA:80,2
DA:82,6
DA:83,3
DA:87,6
DA:89,89
DA:91,3
DA:93,3
DA:95,3
DA:97,24
DA:99,6
DA:100,3
DA:101,6
DA:102,6
DA:105,2
DA:106,2
DA:107,2
DA:108,2
DA:110,6
DA:111,3
DA:115,6
DA:117,3
DA:119,3
DA:121,3
DA:123,3
DA:125,24
DA:127,6
DA:128,3
DA:129,6
DA:130,6
DA:133,2
DA:134,2
DA:135,2
DA:136,2
DA:138,6
DA:139,3
DA:143,6
DA:145,3
DA:147,3
DA:149,3
DA:151,3
DA:153,24
DA:155,6
DA:156,3
DA:157,6
DA:158,6
DA:161,2
DA:162,2
DA:163,2
DA:164,2
DA:166,6
DA:167,3
DA:171,6
DA:173,3
DA:175,3
DA:177,3
DA:179,3
DA:181,3
DA:183,3
DA:184,3
DA:185,3
DA:186,3
DA:187,3
DA:188,3
DA:189,3
DA:190,3
DA:191,3
DA:192,12
LF:84
LH:84
end_of_record
TN:
SF:/home/intel/ros2_overlay_ws/src/ros2_openvino_toolkit/sample/tests/topic/unittest_objectDetectionCheck.cpp
FN:45,_Z15wait_for_futureINSt6chrono8durationIlSt5ratioILl1ELl1EEEEEvRN6rclcpp8executor8ExecutorERSt13shared_futureIbERKT_
FN:61,_ZN48UnitTestObjectDetection_testObjectDetection_TestC2Ev
FN:61,_ZN48UnitTestObjectDetection_testObjectDetection_TestD2Ev
FN:61,_ZN48UnitTestObjectDetection_testObjectDetection_Test8TestBodyEv
FN:61,_ZN48UnitTestObjectDetection_testObjectDetection_TestD0Ev
FN:69,_ZZN48UnitTestObjectDetection_testObjectDetection_Test8TestBodyEvENKUlSt10shared_ptrIN11object_msgs3msg15ObjectsInBoxes_ISaIvEEEEE_clES6_
FN:89,main
FN:100,_Z41__static_initialization_and_destruction_0ii
FN:100,_GLOBAL__sub_I_unittest_objectDetectionCheck.cpp
FNDA:2,_ZZN48UnitTestObjectDetection_testObjectDetection_Test8TestBodyEvENKUlSt10shared_ptrIN11object_msgs3msg15ObjectsInBoxes_ISaIvEEEEE_clES6_
FNDA:3,_Z41__static_initialization_and_destruction_0ii
FNDA:3,_ZN48UnitTestObjectDetection_testObjectDetection_TestC2Ev
FNDA:3,_GLOBAL__sub_I_unittest_objectDetectionCheck.cpp
FNDA:3,_ZN48UnitTestObjectDetection_testObjectDetection_TestD2Ev
FNDA:3,_ZN48UnitTestObjectDetection_testObjectDetection_Test8TestBodyEv
FNDA:3,main
FNDA:3,_ZN48UnitTestObjectDetection_testObjectDetection_TestD0Ev
FNDA:3,_Z15wait_for_futureINSt6chrono8durationIlSt5ratioILl1ELl1EEEEEvRN6rclcpp8executor8ExecutorERSt13shared_futureIbERKT_
FNF:9
FNH:9
BRDA:52,4294967295,1,3
BRDA:52,4294967295,2,0
BRDA:53,0,2,3
BRDA:53,0,3,0
BRDA:54,0,1,3
BRDA:54,0,2,0
BRDA:54,1,4,1
BRDA:54,1,5,2
BRDA:54,2,7,1
BRDA:54,2,8,0
BRDA:54,3,10,1
BRDA:54,3,11,0
BRDA:54,4,14,1
BRDA:54,4,15,0
BRDA:54,5,17,1
BRDA:54,5,18,0
BRDA:55,0,1,1
BRDA:55,0,2,0
BRDA:56,4294967295,1,1
BRDA:56,4294967295,2,0
BRDA:57,0,1,1
BRDA:57,0,2,0
BRDA:57,2,5,1
BRDA:57,2,6,0
BRDA:61,4294967295,5,3
BRDA:61,4294967295,6,0
BRDA:61,0,8,3
BRDA:61,0,9,0
BRDA:61,1,11,3
BRDA:61,1,12,0
BRDA:63,0,1,3
BRDA:63,0,2,0
BRDA:64,0,1,3
BRDA:64,0,2,0
BRDA:64,1,4,3
BRDA:64,1,5,0
BRDA:64,2,7,3
BRDA:64,2,8,0
BRDA:65,0,1,3
BRDA:65,0,2,0
BRDA:66,0,1,3
BRDA:66,0,2,0
BRDA:71,0,1,2
BRDA:71,0,2,0
BRDA:74,4294967295,1,3
BRDA:74,4294967295,2,0
BRDA:74,0,4,3
BRDA:74,0,5,0
BRDA:75,4294967295,2,3
BRDA:75,4294967295,3,0
BRDA:79,4294967295,5,3
BRDA:79,4294967295,6,0
BRDA:79,0,8,3
BRDA:79,0,9,0
BRDA:81,4294967295,2,3
BRDA:81,4294967295,3,0
BRDA:81,0,5,3
BRDA:81,0,6,0
BRDA:83,0,2,3
BRDA:83,0,3,0
BRDA:85,0,2,1
BRDA:85,0,3,2
BRDA:85,1,5,1
BRDA:85,1,6,0
BRDA:85,2,8,1
BRDA:85,2,9,0
BRDA:85,3,12,1
BRDA:85,3,13,0
BRDA:85,4,15,1
BRDA:85,4,16,0
BRDA:91,0,1,3
BRDA:91,0,2,0
BRDA:92,0,1,3
BRDA:92,0,2,0
BRDA:92,1,4,3
BRDA:92,1,5,0
BRDA:92,2,7,3
BRDA:92,2,8,0
BRDA:94,4294967295,1,3
BRDA:94,4294967295,2,0
BRDA:95,0,1,3
BRDA:95,0,2,0
BRDA:96,0,2,3
BRDA:96,0,3,0
BRDA:96,1,5,3
BRDA:96,1,6,0
BRDA:97,4294967295,1,3
BRDA:97,4294967295,2,0
BRDA:98,0,2,3
BRDA:98,0,3,0
BRDA:98,1,6,3
BRDA:98,1,7,0
BRDA:100,3,1,3
BRDA:100,3,2,0
BRDA:100,4,3,3
BRDA:100,4,4,0
BRF:96
BRH:50
DA:45,3
DA:51,3
DA:52,3
DA:53,3
DA:54,4
DA:55,1
DA:56,1
DA:57,2
DA:59,3
DA:61,24
DA:63,6
DA:64,3
DA:65,6
DA:66,6
DA:69,2
DA:70,2
DA:71,2
DA:72,2
DA:74,6
DA:75,3
DA:79,6
DA:81,29
DA:83,3
DA:85,3
DA:87,3
DA:89,3
DA:91,3
DA:92,3
DA:93,3
DA:94,3
DA:95,3
DA:96,3
DA:97,3
DA:98,3
DA:99,3
DA:100,12
LF:36
LH:36
end_of_record
TN:
SF:/home/intel/ros2_overlay_ws/src/ros2_openvino_toolkit/sample/tests/topic/unittest_reidentification.cpp
FN:49,_Z15wait_for_futureINSt6chrono8durationIlSt5ratioILl1ELl1EEEEEvRN6rclcpp8executor8ExecutorERSt13shared_futureIbERKT_
FN:65,_ZN56UnitTestPersonReidentification_testReidentification_TestD2Ev
FN:65,_ZN56UnitTestPersonReidentification_testReidentification_TestD0Ev
FN:65,_ZN56UnitTestPersonReidentification_testReidentification_TestC2Ev
FN:65,_ZN56UnitTestPersonReidentification_testReidentification_Test8TestBodyEv
FN:73,_ZZN56UnitTestPersonReidentification_testReidentification_Test8TestBodyEvENKUlSt10shared_ptrIN11people_msgs3msg24ReidentificationStamped_ISaIvEEEEE_clES6_
FN:93,main
FN:103,_Z41__static_initialization_and_destruction_0ii
FN:103,_GLOBAL__sub_I_unittest_reidentification.cpp
FNDA:7,_ZN56UnitTestPersonReidentification_testReidentification_Test8TestBodyEv
FNDA:7,_ZN56UnitTestPersonReidentification_testReidentification_TestC2Ev
FNDA:1,_ZZN56UnitTestPersonReidentification_testReidentification_Test8TestBodyEvENKUlSt10shared_ptrIN11people_msgs3msg24ReidentificationStamped_ISaIvEEEEE_clES6_
FNDA:7,_GLOBAL__sub_I_unittest_reidentification.cpp
FNDA:7,_Z15wait_for_futureINSt6chrono8durationIlSt5ratioILl1ELl1EEEEEvRN6rclcpp8executor8ExecutorERSt13shared_futureIbERKT_
FNDA:7,main
FNDA:7,_Z41__static_initialization_and_destruction_0ii
FNDA:7,_ZN56UnitTestPersonReidentification_testReidentification_TestD0Ev
FNDA:7,_ZN56UnitTestPersonReidentification_testReidentification_TestD2Ev
FNF:9
FNH:9
BRDA:56,4294967295,1,7
BRDA:56,4294967295,2,0
BRDA:57,0,2,7
BRDA:57,0,3,0
BRDA:58,0,1,7
BRDA:58,0,2,0
BRDA:58,1,4,6
BRDA:58,1,5,1
BRDA:58,2,7,6
BRDA:58,2,8,0
BRDA:58,3,10,6
BRDA:58,3,11,0
BRDA:58,4,14,6
BRDA:58,4,15,0
BRDA:58,5,17,6
BRDA:58,5,18,0
BRDA:59,0,1,6
BRDA:59,0,2,0
BRDA:60,4294967295,1,6
BRDA:60,4294967295,2,0
BRDA:61,0,1,6
BRDA:61,0,2,0
BRDA:61,2,5,6
BRDA:61,2,6,0
BRDA:65,4294967295,5,7
BRDA:65,4294967295,6,0
BRDA:65,0,8,7
BRDA:65,0,9,0
BRDA:65,1,11,7
BRDA:65,1,12,0
BRDA:67,0,1,7
BRDA:67,0,2,0
BRDA:68,0,1,7
BRDA:68,0,2,0
BRDA:68,1,4,7
BRDA:68,1,5,0
BRDA:68,2,7,7
BRDA:68,2,8,0
BRDA:69,0,1,7
BRDA:69,0,2,0
BRDA:70,0,1,7
BRDA:70,0,2,0
BRDA:75,0,1,1
BRDA:75,0,2,0
BRDA:78,4294967295,1,7
BRDA:78,4294967295,2,0
BRDA:78,0,4,7
BRDA:78,0,5,0
BRDA:79,4294967295,2,7
BRDA:79,4294967295,3,0
BRDA:83,4294967295,5,7
BRDA:83,4294967295,6,0
BRDA:83,0,8,7
BRDA:83,0,9,0
BRDA:85,4294967295,2,7
BRDA:85,4294967295,3,0
BRDA:85,0,5,7
BRDA:85,0,6,0
BRDA:87,0,2,7
BRDA:87,0,3,0
BRDA:89,0,2,6
BRDA:89,0,3,1
BRDA:89,1,5,6
BRDA:89,1,6,0
BRDA:89,2,8,6
BRDA:89,2,9,0
BRDA:89,3,12,6
BRDA:89,3,13,0
BRDA:89,4,15,6
BRDA:89,4,16,0
BRDA:95,0,1,7
BRDA:95,0,2,0
BRDA:96,0,1,7
BRDA:96,0,2,0
BRDA:96,1,4,7
BRDA:96,1,5,0
BRDA:96,2,7,7
BRDA:96,2,8,0
BRDA:98,4294967295,1,7
BRDA:98,4294967295,2,0
BRDA:99,0,1,7
BRDA:99,0,2,0
BRDA:100,0,1,7
BRDA:100,0,2,0
BRDA:101,0,2,7
BRDA:101,0,3,0
BRDA:101,1,6,7
BRDA:101,1,7,0
BRDA:103,3,1,7
BRDA:103,3,2,0
BRDA:103,4,3,7
BRDA:103,4,4,0
BRF:92
BRH:48
DA:49,7
DA:55,7
DA:56,7
DA:57,7
DA:58,13
DA:59,6
DA:60,6
DA:61,12
DA:63,7
DA:65,56
DA:67,14
DA:68,7
DA:69,14
DA:70,14
DA:73,1
DA:74,1
DA:75,1
DA:76,1
DA:78,14
DA:79,7
DA:83,14
DA:85,61
DA:87,7
DA:89,7
DA:91,7
DA:93,7
DA:95,7
DA:96,7
DA:97,7
DA:98,7
DA:99,7
DA:100,7
DA:101,7
DA:102,7
DA:103,28
LF:35
LH:35
end_of_record
TN:
SF:/home/intel/ros2_overlay_ws/src/ros2_openvino_toolkit/sample/tests/topic/unittest_segmentationCheck.cpp
FN:47,_Z15wait_for_futureINSt6chrono8durationIlSt5ratioILl1ELl1EEEEEvRN6rclcpp8executor8ExecutorERSt13shared_futureIbERKT_
FN:63,_ZN48UnitTestObjectDetection_testObjectDetection_TestD2Ev
FN:63,_ZN48UnitTestObjectDetection_testObjectDetection_Test8TestBodyEv
FN:63,_ZN48UnitTestObjectDetection_testObjectDetection_TestD0Ev
FN:63,_ZN48UnitTestObjectDetection_testObjectDetection_TestC2Ev
FN:71,_ZZN48UnitTestObjectDetection_testObjectDetection_Test8TestBodyEvENKUlSt10shared_ptrIN11people_msgs3msg15ObjectsInMasks_ISaIvEEEEE_clES6_
FN:91,main
FN:102,_GLOBAL__sub_I_unittest_segmentationCheck.cpp
FN:102,_Z41__static_initialization_and_destruction_0ii
FNDA:0,_ZZN48UnitTestObjectDetection_testObjectDetection_Test8TestBodyEvENKUlSt10shared_ptrIN11people_msgs3msg15ObjectsInMasks_ISaIvEEEEE_clES6_
FNDA:3,_Z15wait_for_futureINSt6chrono8durationIlSt5ratioILl1ELl1EEEEEvRN6rclcpp8executor8ExecutorERSt13shared_futureIbERKT_
FNDA:3,_ZN48UnitTestObjectDetection_testObjectDetection_TestD0Ev
FNDA:3,_ZN48UnitTestObjectDetection_testObjectDetection_Test8TestBodyEv
FNDA:3,main
FNDA:3,_GLOBAL__sub_I_unittest_segmentationCheck.cpp
FNDA:3,_ZN48UnitTestObjectDetection_testObjectDetection_TestD2Ev
FNDA:3,_ZN48UnitTestObjectDetection_testObjectDetection_TestC2Ev
FNDA:3,_Z41__static_initialization_and_destruction_0ii
FNF:9
FNH:8
BRDA:54,4294967295,1,3
BRDA:54,4294967295,2,0
BRDA:55,0,2,3
BRDA:55,0,3,0
BRDA:56,0,1,3
BRDA:56,0,2,0
BRDA:56,1,4,3
BRDA:56,1,5,0
BRDA:56,2,7,3
BRDA:56,2,8,0
BRDA:56,3,10,3
BRDA:56,3,11,0
BRDA:56,4,14,3
BRDA:56,4,15,0
BRDA:56,5,17,3
BRDA:56,5,18,0
BRDA:57,0,1,3
BRDA:57,0,2,0
BRDA:58,4294967295,1,3
BRDA:58,4294967295,2,0
BRDA:59,0,1,3
BRDA:59,0,2,0
BRDA:59,2,5,3
BRDA:59,2,6,0
BRDA:63,4294967295,5,3
BRDA:63,4294967295,6,0
BRDA:63,0,8,3
BRDA:63,0,9,0
BRDA:63,1,11,3
BRDA:63,1,12,0
BRDA:65,0,1,3
BRDA:65,0,2,0
BRDA:66,0,1,3
BRDA:66,0,2,0
BRDA:66,1,4,3
BRDA:66,1,5,0
BRDA:66,2,7,3
BRDA:66,2,8,0
BRDA:67,0,1,3
BRDA:67,0,2,0
BRDA:68,0,1,3
BRDA:68,0,2,0
BRDA:73,0,1,-
BRDA:73,0,2,-
BRDA:76,4294967295,1,3
BRDA:76,4294967295,2,0
BRDA:76,0,4,3
BRDA:76,0,5,0
BRDA:77,4294967295,2,3
BRDA:77,4294967295,3,0
BRDA:81,4294967295,5,3
BRDA:81,4294967295,6,0
BRDA:81,0,8,3
BRDA:81,0,9,0
BRDA:83,4294967295,2,3
BRDA:83,4294967295,3,0
BRDA:83,0,5,3
BRDA:83,0,6,0
BRDA:85,0,2,3
BRDA:85,0,3,0
BRDA:87,0,2,3
BRDA:87,0,3,0
BRDA:87,1,5,3
BRDA:87,1,6,0
BRDA:87,2,8,3
BRDA:87,2,9,0
BRDA:87,3,12,3
BRDA:87,3,13,0
BRDA:87,4,15,3
BRDA:87,4,16,0
BRDA:93,0,1,3
BRDA:93,0,2,0
BRDA:94,0,1,3
BRDA:94,0,2,0
BRDA:94,1,4,3
BRDA:94,1,5,0
BRDA:94,2,7,3
BRDA:94,2,8,0
BRDA:96,4294967295,1,3
BRDA:96,4294967295,2,0
BRDA:97,0,1,3
BRDA:97,0,2,0
BRDA:98,0,2,3
BRDA:98,0,3,0
BRDA:98,1,5,3
BRDA:98,1,6,0
BRDA:99,4294967295,1,3
BRDA:99,4294967295,2,0
BRDA:100,0,2,3
BRDA:100,0,3,0
BRDA:100,1,6,3
BRDA:100,1,7,0
BRDA:102,3,1,3
BRDA:102,3,2,0
BRDA:102,4,3,3
BRDA:102,4,4,0
BRF:96
BRH:47
DA:47,3
DA:53,3
DA:54,3
DA:55,3
DA:56,6
DA:57,3
DA:58,3
DA:59,6
DA:61,3
DA:63,24
DA:65,6
DA:66,3
DA:67,6
DA:68,6
DA:71,0
DA:72,0
DA:73,0
DA:74,0
DA:76,6
DA:77,3
DA:81,6
DA:83,33
DA:85,3
DA:87,3
DA:89,3
DA:91,3
DA:93,3
DA:94,3
DA:95,3
DA:96,3
DA:97,3
DA:98,3
DA:99,3
DA:100,3
DA:101,3
DA:102,12
LF:36
LH:32
end_of_record
TN:
SF:/home/intel/ros2_overlay_ws/src/ros2_openvino_toolkit/sample/tests/topic/unittest_vehicleDetectionCheck.cpp
FN:52,_Z15wait_for_futureINSt6chrono8durationIlSt5ratioILl1ELl1EEEEEvRN6rclcpp8executor8ExecutorERSt13shared_futureIbERKT_
FN:68,_ZN56UnitTestPersonReidentification_testReidentification_TestD0Ev
FN:68,_ZN56UnitTestPersonReidentification_testReidentification_TestD2Ev
FN:68,_ZN56UnitTestPersonReidentification_testReidentification_TestC2Ev
FN:68,_ZN56UnitTestPersonReidentification_testReidentification_Test8TestBodyEv
FN:76,_ZZN56UnitTestPersonReidentification_testReidentification_Test8TestBodyEvENKUlSt10shared_ptrIN11people_msgs3msg20LicensePlateStamped_ISaIvEEEEE_clES6_
FN:96,main
FN:106,_Z41__static_initialization_and_destruction_0ii
FN:106,_GLOBAL__sub_I_unittest_vehicleDetectionCheck.cpp
FNDA:3,_GLOBAL__sub_I_unittest_vehicleDetectionCheck.cpp
FNDA:3,_ZN56UnitTestPersonReidentification_testReidentification_TestC2Ev
FNDA:2,_ZZN56UnitTestPersonReidentification_testReidentification_Test8TestBodyEvENKUlSt10shared_ptrIN11people_msgs3msg20LicensePlateStamped_ISaIvEEEEE_clES6_
FNDA:3,_ZN56UnitTestPersonReidentification_testReidentification_Test8TestBodyEv
FNDA:3,_ZN56UnitTestPersonReidentification_testReidentification_TestD2Ev
FNDA:3,_ZN56UnitTestPersonReidentification_testReidentification_TestD0Ev
FNDA:3,_Z41__static_initialization_and_destruction_0ii
FNDA:3,_Z15wait_for_futureINSt6chrono8durationIlSt5ratioILl1ELl1EEEEEvRN6rclcpp8executor8ExecutorERSt13shared_futureIbERKT_
FNDA:3,main
FNF:9
FNH:9
BRDA:59,4294967295,1,3
BRDA:59,4294967295,2,0
BRDA:60,0,2,3
BRDA:60,0,3,0
BRDA:61,0,1,3
BRDA:61,0,2,0
BRDA:61,1,4,1
BRDA:61,1,5,2
BRDA:61,2,7,1
BRDA:61,2,8,0
BRDA:61,3,10,1
BRDA:61,3,11,0
BRDA:61,4,14,1
BRDA:61,4,15,0
BRDA:61,5,17,1
BRDA:61,5,18,0
BRDA:62,0,1,1
BRDA:62,0,2,0
BRDA:63,4294967295,1,1
BRDA:63,4294967295,2,0
BRDA:64,0,1,1
BRDA:64,0,2,0
BRDA:64,2,5,1
BRDA:64,2,6,0
BRDA:68,4294967295,5,3
BRDA:68,4294967295,6,0
BRDA:68,0,8,3
BRDA:68,0,9,0
BRDA:68,1,11,3
BRDA:68,1,12,0
BRDA:70,0,1,3
BRDA:70,0,2,0
BRDA:71,0,1,3
BRDA:71,0,2,0
BRDA:71,1,4,3
BRDA:71,1,5,0
BRDA:71,2,7,3
BRDA:71,2,8,0
BRDA:72,0,1,3
BRDA:72,0,2,0
BRDA:73,0,1,3
BRDA:73,0,2,0
BRDA:78,0,1,2
BRDA:78,0,2,0
BRDA:81,4294967295,1,3
BRDA:81,4294967295,2,0
BRDA:81,0,4,3
BRDA:81,0,5,0
BRDA:82,4294967295,2,3
BRDA:82,4294967295,3,0
BRDA:86,4294967295,5,3
BRDA:86,4294967295,6,0
BRDA:86,0,8,3
BRDA:86,0,9,0
BRDA:88,4294967295,2,3
BRDA:88,4294967295,3,0
BRDA:88,0,5,3
BRDA:88,0,6,0
BRDA:90,0,2,3
BRDA:90,0,3,0
BRDA:92,0,2,1
BRDA:92,0,3,2
BRDA:92,1,5,1
BRDA:92,1,6,0
BRDA:92,2,8,1
BRDA:92,2,9,0
BRDA:92,3,12,1
BRDA:92,3,13,0
BRDA:92,4,15,1
BRDA:92,4,16,0
BRDA:98,0,1,3
BRDA:98,0,2,0
BRDA:99,0,1,3
BRDA:99,0,2,0
BRDA:99,1,4,3
BRDA:99,1,5,0
BRDA:99,2,7,3
BRDA:99,2,8,0
BRDA:101,4294967295,1,3
BRDA:101,4294967295,2,0
BRDA:102,0,1,3
BRDA:102,0,2,0
BRDA:103,0,1,3
BRDA:103,0,2,0
BRDA:104,0,2,3
BRDA:104,0,3,0
BRDA:104,1,6,3
BRDA:104,1,7,0
BRDA:106,3,1,3
BRDA:106,3,2,0
BRDA:106,4,3,3
BRDA:106,4,4,0
BRF:92
BRH:48
DA:52,3
DA:58,3
DA:59,3
DA:60,3
DA:61,4
DA:62,1
DA:63,1
DA:64,2
DA:66,3
DA:68,24
DA:70,6
DA:71,3
DA:72,6
DA:73,6
DA:76,2
DA:77,2
DA:78,2
DA:79,2
DA:81,6
DA:82,3
DA:86,6
DA:88,23
DA:90,3
DA:92,3
DA:94,3
DA:96,3
DA:98,3
DA:99,3
DA:100,3
DA:101,3
DA:102,3
DA:103,3
DA:104,3
DA:105,3
DA:106,12
LF:35
LH:35
end_of_record
TN:
SF:/home/intel/ros2_overlay_ws/src/ros2_openvino_toolkit/vino_param_lib/include/vino_param_lib/param_manager.hpp
FN:61,_ZN6Params12ParamManager16InferenceRawDataC2EOS1_
FN:61,_ZN6Params12ParamManager16InferenceRawDataD2Ev
FN:61,_ZN6Params12ParamManager16InferenceRawDataC2ERKS1_
FN:61,_ZN6Params12ParamManager16InferenceRawDataC2Ev
FN:73,_ZN6Params12ParamManager13FilterRawDataD2Ev
FN:73,_ZN6Params12ParamManager13FilterRawDataC2ERKS1_
FN:73,_ZN6Params12ParamManager13FilterRawDataC2EOS1_
FN:73,_ZN6Params12ParamManager13FilterRawDataC2Ev
FN:80,_ZN6Params12ParamManager15PipelineRawDataC2EOS1_
FN:80,_ZN6Params12ParamManager15PipelineRawDataC2Ev
FN:80,_ZN6Params12ParamManager15PipelineRawDataD2Ev
FN:80,_ZN6Params12ParamManager15PipelineRawDataC2ERKS1_
FNDA:0,_ZN6Params12ParamManager15PipelineRawDataD2Ev
FNDA:0,_ZN6Params12ParamManager15PipelineRawDataC2ERKS1_
FNDA:22,_ZN6Params12ParamManager16InferenceRawDataC2Ev
FNDA:0,_ZN6Params12ParamManager13FilterRawDataC2Ev
FNDA:0,_ZN6Params12ParamManager13FilterRawDataC2EOS1_
FNDA:0,_ZN6Params12ParamManager16InferenceRawDataD2Ev
FNDA:0,_ZN6Params12ParamManager16InferenceRawDataC2ERKS1_
FNDA:0,_ZN6Params12ParamManager15PipelineRawDataC2EOS1_
FNDA:0,_ZN6Params12ParamManager13FilterRawDataD2Ev
FNDA:0,_ZN6Params12ParamManager13FilterRawDataC2ERKS1_
FNDA:12,_ZN6Params12ParamManager16InferenceRawDataC2EOS1_
FNDA:10,_ZN6Params12ParamManager15PipelineRawDataC2Ev
FNF:12
FNH:3
BRDA:61,3,7,-
BRDA:61,3,8,-
BRDA:61,4,10,-
BRDA:61,4,11,-
BRDA:61,5,13,-
BRDA:61,5,14,-
BRDA:61,6,16,-
BRDA:61,6,17,-
BRDA:73,3,5,-
BRDA:73,3,6,-
BRDA:73,4,8,-
BRDA:73,4,9,-
BRDA:80,3,9,-
BRDA:80,3,10,-
BRDA:80,4,12,-
BRDA:80,4,13,-
BRDA:80,5,15,-
BRDA:80,5,16,-
BRDA:80,6,18,-
BRDA:80,6,19,-
BRDA:80,7,21,-
BRDA:80,7,22,-
BRDA:80,8,24,-
BRDA:80,8,25,-
BRF:24
BRH:0
DA:61,68
DA:73,0
DA:80,20
LF:3
LH:2
end_of_record
TN:
SF:/home/intel/ros2_overlay_ws/src/ros2_openvino_toolkit/vino_param_lib/include/vino_param_lib/slog.hpp
FN:44,_ZN4slog9LogStreamD2Ev
FN:55,_ZN4slog9LogStreamC2ERKNSt7__cxx1112basic_stringIcSt11char_traitsIcESaIcEEERSo
FN:66,_ZN4slog9LogStreamlsIA8_cEERS0_RKT_
FN:66,_ZN4slog9LogStreamlsIA23_cEERS0_RKT_
FN:66,_ZN4slog9LogStreamlsIbEERS0_RKT_
FN:66,_ZN4slog9LogStreamlsIfEERS0_RKT_
FN:66,_ZN4slog9LogStreamlsIA45_cEERS0_RKT_
FN:66,_ZN4slog9LogStreamlsINSt7__cxx1112basic_stringIcSt11char_traitsIcESaIcEEEEERS0_RKT_
FN:66,_ZN4slog9LogStreamlsIA38_cEERS0_RKT_
FN:66,_ZN4slog9LogStreamlsIA22_cEERS0_RKT_
FN:66,_ZN4slog9LogStreamlsIA28_cEERS0_RKT_
FN:66,_ZN4slog9LogStreamlsIA11_cEERS0_RKT_
FN:66,_ZN4slog9LogStreamlsIA9_cEERS0_RKT_
FN:66,_ZN4slog9LogStreamlsIA15_cEERS0_RKT_
FN:66,_ZN4slog9LogStreamlsIA3_cEERS0_RKT_
FN:66,_ZN4slog9LogStreamlsIA24_cEERS0_RKT_
FN:66,_ZN4slog9LogStreamlsIA25_cEERS0_RKT_
FN:66,_ZN4slog9LogStreamlsIA14_cEERS0_RKT_
FN:66,_ZN4slog9LogStreamlsIA10_cEERS0_RKT_
FN:66,_ZN4slog9LogStreamlsIiEERS0_RKT_
FN:66,_ZN4slog9LogStreamlsImEERS0_RKT_
FN:66,_ZN4slog9LogStreamlsIA16_cEERS0_RKT_
FN:66,_ZN4slog9LogStreamlsIA26_cEERS0_RKT_
FN:66,_ZN4slog9LogStreamlsIA18_cEERS0_RKT_
FN:66,_ZN4slog9LogStreamlsIPKcEERS0_RKT_
FN:78,_ZN4slog9LogStreamlsERKNS_16LogStreamEndLineE
FNDA:9,_ZN4slog9LogStreamlsIA15_cEERS0_RKT_
FNDA:28,_ZN4slog9LogStreamlsIA22_cEERS0_RKT_
FNDA:28,_ZN4slog9LogStreamlsIA28_cEERS0_RKT_
FNDA:36,_ZN4slog9LogStreamlsIA11_cEERS0_RKT_
FNDA:18,_ZN4slog9LogStreamlsIA9_cEERS0_RKT_
FNDA:36,_ZN4slog9LogStreamlsIbEERS0_RKT_
FNDA:18,_ZN4slog9LogStreamlsIfEERS0_RKT_
FNDA:231,_ZN4slog9LogStreamlsERKNS_16LogStreamEndLineE
FNDA:0,_ZN4slog9LogStreamD2Ev
FNDA:18,_ZN4slog9LogStreamlsIA8_cEERS0_RKT_
FNDA:14,_ZN4slog9LogStreamlsIA23_cEERS0_RKT_
FNDA:0,_ZN4slog9LogStreamlsIA38_cEERS0_RKT_
FNDA:18,_ZN4slog9LogStreamlsIA45_cEERS0_RKT_
FNDA:0,_ZN4slog9LogStreamlsINSt7__cxx1112basic_stringIcSt11char_traitsIcESaIcEEEEERS0_RKT_
FNDA:28,_ZN4slog9LogStreamlsIA16_cEERS0_RKT_
FNDA:18,_ZN4slog9LogStreamlsIA26_cEERS0_RKT_
FNDA:10,_ZN4slog9LogStreamlsIA18_cEERS0_RKT_
FNDA:8,_ZN4slog9LogStreamlsIPKcEERS0_RKT_
FNDA:18,_ZN4slog9LogStreamlsIA24_cEERS0_RKT_
FNDA:84,_ZN4slog9LogStreamlsIA3_cEERS0_RKT_
FNDA:10,_ZN4slog9LogStreamlsIiEERS0_RKT_
FNDA:20,_ZN4slog9LogStreamlsImEERS0_RKT_
FNDA:6,_ZN4slog9LogStreamC2ERKNSt7__cxx1112basic_stringIcSt11char_traitsIcESaIcEEERSo
FNDA:0,_ZN4slog9LogStreamlsIA25_cEERS0_RKT_
FNDA:9,_ZN4slog9LogStreamlsIA14_cEERS0_RKT_
FNDA:63,_ZN4slog9LogStreamlsIA10_cEERS0_RKT_
FNF:26
FNH:22
BRDA:68,0,0,28
BRDA:68,0,1,0
BRDA:68,1,2,18
BRDA:68,1,3,0
BRDA:68,2,4,18
BRDA:68,2,5,0
BRDA:68,3,6,9
BRDA:68,3,7,0
BRDA:68,4,8,0
BRDA:68,4,9,36
BRDA:68,5,10,18
BRDA:68,5,11,0
BRDA:68,6,12,0
BRDA:68,6,13,18
BRDA:68,7,14,-
BRDA:68,7,15,-
BRDA:68,8,16,0
BRDA:68,8,17,10
BRDA:68,9,18,18
BRDA:68,9,19,0
BRDA:68,10,20,9
BRDA:68,10,21,0
BRDA:68,11,22,33
BRDA:68,11,23,51
BRDA:68,12,24,0
BRDA:68,12,25,8
BRDA:68,13,26,63
BRDA:68,13,27,0
BRDA:68,14,28,36
BRDA:68,14,29,0
BRDA:68,15,30,18
BRDA:68,15,31,0
BRDA:68,16,32,14
BRDA:68,16,33,0
BRDA:68,17,34,10
BRDA:68,17,35,0
BRDA:68,18,36,28
BRDA:68,18,37,0
BRDA:68,19,38,-
BRDA:68,19,39,-
BRDA:68,20,40,-
BRDA:68,20,41,-
BRDA:68,21,42,0
BRDA:68,21,43,20
BRDA:68,22,44,28
BRDA:68,22,45,0
BRDA:87,4294967295,2,20
BRDA:87,4294967295,3,0
BRDA:87,0,5,20
BRDA:87,0,6,0
BRDA:88,4294967295,2,20
BRDA:88,4294967295,3,0
BRDA:88,0,5,20
BRDA:88,0,6,0
BRDA:89,4294967295,2,20
BRDA:89,4294967295,3,0
BRDA:89,0,5,20
BRDA:89,0,6,0
BRF:58
BRH:27
DA:44,0
DA:55,6
DA:56,6
DA:58,6
DA:59,6
DA:66,491
DA:68,491
DA:69,348
DA:70,348
DA:73,491
DA:74,491
DA:78,231
DA:80,231
DA:82,231
DA:83,231
DA:87,20
DA:88,20
DA:89,20
LF:18
LH:17
end_of_record
TN:
SF:/home/intel/ros2_overlay_ws/src/ros2_openvino_toolkit/vino_param_lib/src/param_manager.cpp
FN:52,_ZN6ParamsrsERKN4YAML4NodeERSt6vectorINS_12ParamManager15PipelineRawDataESaIS6_EE
FN:62,_ZN6ParamsrsERKN4YAML4NodeERNS_12ParamManager13CommonRawDataE
FN:70,_ZN6ParamsrsERKN4YAML4NodeERNS_12ParamManager15PipelineRawDataE
FN:82,_ZN6ParamsrsERKN4YAML4NodeERSt6vectorINS_12ParamManager16InferenceRawDataESaIS6_EE
FN:92,_ZN6ParamsrsERKN4YAML4NodeERNS_12ParamManager16InferenceRawDataE
FN:108,_ZN6ParamsrsERKN4YAML4NodeERSt6vectorINSt7__cxx1112basic_stringIcSt11char_traitsIcESaIcEEESaISA_EE
FN:117,_ZN6ParamsrsERKN4YAML4NodeERSt8multimapINSt7__cxx1112basic_stringIcSt11char_traitsIcESaIcEEESA_St4lessISA_ESaISt4pairIKSA_SA_EEE
FN:135,_ZN6ParamsrsERKN4YAML4NodeERSt6vectorINS_12ParamManager13FilterRawDataESaIS6_EE
FN:153,_ZN6ParamsrsERKN4YAML4NodeERNSt7__cxx1112basic_stringIcSt11char_traitsIcESaIcEEE
FN:158,_ZN6ParamsrsERKN4YAML4NodeERb
FN:163,_ZN6ParamsrsERKN4YAML4NodeERi
FN:168,_ZN6ParamsrsERKN4YAML4NodeERf
FN:173,_ZNK6Params12ParamManager5printEv
FN:215,_ZN6Params12ParamManager5parseENSt7__cxx1112basic_stringIcSt11char_traitsIcESaIcEEE
FN:228,_ZNK6Params12ParamManager16getPipelineNamesB5cxx11Ev
FN:238,_ZNK6Params12ParamManager11getPipelineERKNSt7__cxx1112basic_stringIcSt11char_traitsIcESaIcEEE
FN:247,_GLOBAL__sub_I_param_manager.cpp
FN:247,_Z41__static_initialization_and_destruction_0ii
FNDA:10,_ZN6ParamsrsERKN4YAML4NodeERNS_12ParamManager15PipelineRawDataE
FNDA:20,_GLOBAL__sub_I_param_manager.cpp
FNDA:0,_ZNK6Params12ParamManager11getPipelineERKNSt7__cxx1112basic_stringIcSt11char_traitsIcESaIcEEE
FNDA:22,_ZN6ParamsrsERKN4YAML4NodeERNS_12ParamManager16InferenceRawDataE
FNDA:10,_ZN6ParamsrsERKN4YAML4NodeERSt8multimapINSt7__cxx1112basic_stringIcSt11char_traitsIcESaIcEEESA_St4lessISA_ESaISt4pairIKSA_SA_EEE
FNDA:10,_ZN6ParamsrsERKN4YAML4NodeERNS_12ParamManager13CommonRawDataE
FNDA:0,_ZNK6Params12ParamManager16getPipelineNamesB5cxx11Ev
FNDA:22,_ZN6ParamsrsERKN4YAML4NodeERf
FNDA:10,_ZN6ParamsrsERKN4YAML4NodeERSt6vectorINS_12ParamManager13FilterRawDataESaIS6_EE
FNDA:32,_ZN6ParamsrsERKN4YAML4NodeERb
FNDA:10,_ZN6ParamsrsERKN4YAML4NodeERSt6vectorINS_12ParamManager16InferenceRawDataESaIS6_EE
FNDA:10,_ZN6ParamsrsERKN4YAML4NodeERSt6vectorINS_12ParamManager15PipelineRawDataESaIS6_EE
FNDA:20,_ZN6ParamsrsERKN4YAML4NodeERSt6vectorINSt7__cxx1112basic_stringIcSt11char_traitsIcESaIcEEESaISA_EE
FNDA:18,_ZNK6Params12ParamManager5printEv
FNDA:22,_ZN6ParamsrsERKN4YAML4NodeERi
FNDA:20,_ZN6Params12ParamManager5parseENSt7__cxx1112basic_stringIcSt11char_traitsIcESaIcEEE
FNDA:20,_Z41__static_initialization_and_destruction_0ii
FNDA:285,_ZN6ParamsrsERKN4YAML4NodeERNSt7__cxx1112basic_stringIcSt11char_traitsIcESaIcEEE
FNF:18
FNH:16
BRDA:54,0,3,10
BRDA:54,0,4,0
BRDA:54,1,6,10
BRDA:54,1,7,0
BRDA:55,1,1,20
BRDA:55,1,2,0
BRDA:55,2,3,10
BRDA:55,2,4,10
BRDA:57,4294967295,1,10
BRDA:57,4294967295,2,0
BRDA:57,0,4,10
BRDA:57,0,5,0
BRDA:58,4294967295,1,10
BRDA:58,4294967295,2,0
BRDA:64,0,1,10
BRDA:64,0,2,0
BRDA:64,1,4,0
BRDA:64,1,5,10
BRDA:64,5,8,10
BRDA:64,5,9,0
BRDA:64,6,13,10
BRDA:64,6,14,0
BRDA:64,7,16,10
BRDA:64,7,17,0
BRDA:64,8,22,-
BRDA:64,8,23,-
BRDA:64,8,25,-
BRDA:64,8,26,-
BRDA:65,0,1,10
BRDA:65,0,2,0
BRDA:65,1,4,0
BRDA:65,1,5,10
BRDA:65,5,8,10
BRDA:65,5,9,0
BRDA:65,6,13,10
BRDA:65,6,14,0
BRDA:65,7,16,10
BRDA:65,7,17,0
BRDA:65,8,22,-
BRDA:65,8,23,-
BRDA:65,8,25,-
BRDA:65,8,26,-
BRDA:66,0,1,10
BRDA:66,0,2,0
BRDA:66,1,4,0
BRDA:66,1,5,10
BRDA:66,5,8,10
BRDA:66,5,9,0
BRDA:66,6,13,10
BRDA:66,6,14,0
BRDA:66,7,16,10
BRDA:66,7,17,0
BRDA:66,8,22,-
BRDA:66,8,23,-
BRDA:66,8,25,-
BRDA:66,8,26,-
BRDA:67,0,1,10
BRDA:67,0,2,0
BRDA:67,1,4,0
BRDA:67,1,5,10
BRDA:67,5,8,10
BRDA:67,5,9,0
BRDA:67,6,13,10
BRDA:67,6,14,0
BRDA:67,7,16,10
BRDA:67,7,17,0
BRDA:67,8,22,-
BRDA:67,8,23,-
BRDA:67,8,25,-
BRDA:67,8,26,-
BRDA:72,0,1,10
BRDA:72,0,2,0
BRDA:72,1,4,10
BRDA:72,1,5,0
BRDA:72,2,8,-
BRDA:72,2,9,-
BRDA:72,2,13,-
BRDA:72,2,14,-
BRDA:72,2,16,-
BRDA:72,2,17,-
BRDA:72,2,22,-
BRDA:72,2,23,-
BRDA:72,2,25,-
BRDA:72,2,26,-
BRDA:73,0,1,10
BRDA:73,0,2,0
BRDA:73,1,4,10
BRDA:73,1,5,0
BRDA:73,2,8,-
BRDA:73,2,9,-
BRDA:73,2,13,-
BRDA:73,2,14,-
BRDA:73,2,16,-
BRDA:73,2,17,-
BRDA:73,2,22,-
BRDA:73,2,23,-
BRDA:73,2,25,-
BRDA:73,2,26,-
BRDA:74,0,1,10
BRDA:74,0,2,0
BRDA:74,1,4,10
BRDA:74,1,5,0
BRDA:74,2,8,-
BRDA:74,2,9,-
BRDA:74,2,13,-
BRDA:74,2,14,-
BRDA:74,2,16,-
BRDA:74,2,17,-
BRDA:74,2,22,-
BRDA:74,2,23,-
BRDA:74,2,25,-
BRDA:74,2,26,-
BRDA:75,0,1,10
BRDA:75,0,2,0
BRDA:75,1,4,10
BRDA:75,1,5,0
BRDA:75,2,8,-
BRDA:75,2,9,-
BRDA:75,2,13,-
BRDA:75,2,14,-
BRDA:75,2,16,-
BRDA:75,2,17,-
BRDA:75,2,22,-
BRDA:75,2,23,-
BRDA:75,2,25,-
BRDA:75,2,26,-
BRDA:76,0,1,10
BRDA:76,0,2,0
BRDA:76,1,4,10
BRDA:76,1,5,0
BRDA:76,2,8,-
BRDA:76,2,9,-
BRDA:76,2,13,-
BRDA:76,2,14,-
BRDA:76,2,16,-
BRDA:76,2,17,-
BRDA:76,2,22,-
BRDA:76,2,23,-
BRDA:76,2,25,-
BRDA:76,2,26,-
BRDA:77,0,1,10
BRDA:77,0,2,0
BRDA:77,1,4,10
BRDA:77,1,5,0
BRDA:77,2,8,-
BRDA:77,2,9,-
BRDA:77,2,13,-
BRDA:77,2,14,-
BRDA:77,2,16,-
BRDA:77,2,17,-
BRDA:77,2,22,-
BRDA:77,2,23,-
BRDA:77,2,25,-
BRDA:77,2,26,-
BRDA:78,0,1,10
BRDA:78,0,2,0
BRDA:78,1,4,4
BRDA:78,1,5,6
BRDA:78,5,8,6
BRDA:78,5,9,0
BRDA:78,6,13,6
BRDA:78,6,14,0
BRDA:78,7,16,6
BRDA:78,7,17,0
BRDA:78,8,22,-
BRDA:78,8,23,-
BRDA:78,8,25,-
BRDA:78,8,26,-
BRDA:84,0,3,10
BRDA:84,0,4,0
BRDA:84,1,6,10
BRDA:84,1,7,0
BRDA:85,1,1,32
BRDA:85,1,2,0
BRDA:85,2,3,22
BRDA:85,2,4,10
BRDA:87,4294967295,1,22
BRDA:87,4294967295,2,0
BRDA:87,0,4,22
BRDA:87,0,5,0
BRDA:88,4294967295,1,22
BRDA:88,4294967295,2,0
BRDA:94,0,1,22
BRDA:94,0,2,0
BRDA:94,1,4,22
BRDA:94,1,5,0
BRDA:94,2,8,-
BRDA:94,2,9,-
BRDA:94,2,13,-
BRDA:94,2,14,-
BRDA:94,2,16,-
BRDA:94,2,17,-
BRDA:94,2,22,-
BRDA:94,2,23,-
BRDA:94,2,25,-
BRDA:94,2,26,-
BRDA:95,0,1,22
BRDA:95,0,2,0
BRDA:95,1,4,22
BRDA:95,1,5,0
BRDA:95,2,8,-
BRDA:95,2,9,-
BRDA:95,2,13,-
BRDA:95,2,14,-
BRDA:95,2,16,-
BRDA:95,2,17,-
BRDA:95,2,22,-
BRDA:95,2,23,-
BRDA:95,2,25,-
BRDA:95,2,26,-
BRDA:96,0,1,22
BRDA:96,0,2,0
BRDA:96,1,4,0
BRDA:96,1,5,22
BRDA:96,5,8,22
BRDA:96,5,9,0
BRDA:96,6,13,22
BRDA:96,6,14,0
BRDA:96,7,16,22
BRDA:96,7,17,0
BRDA:96,8,22,-
BRDA:96,8,23,-
BRDA:96,8,25,-
BRDA:96,8,26,-
BRDA:97,0,1,22
BRDA:97,0,2,0
BRDA:97,1,4,22
BRDA:97,1,5,0
BRDA:97,2,8,-
BRDA:97,2,9,-
BRDA:97,2,13,-
BRDA:97,2,14,-
BRDA:97,2,16,-
BRDA:97,2,17,-
BRDA:97,2,22,-
BRDA:97,2,23,-
BRDA:97,2,25,-
BRDA:97,2,26,-
BRDA:98,0,1,22
BRDA:98,0,2,0
BRDA:98,1,4,22
BRDA:98,1,5,0
BRDA:98,2,8,-
BRDA:98,2,9,-
BRDA:98,2,13,-
BRDA:98,2,14,-
BRDA:98,2,16,-
BRDA:98,2,17,-
BRDA:98,2,22,-
BRDA:98,2,23,-
BRDA:98,2,25,-
BRDA:98,2,26,-
BRDA:99,0,1,22
BRDA:99,0,2,0
BRDA:99,1,4,22
BRDA:99,1,5,0
BRDA:99,2,8,-
BRDA:99,2,9,-
BRDA:99,2,13,-
BRDA:99,2,14,-
BRDA:99,2,16,-
BRDA:99,2,17,-
BRDA:99,2,22,-
BRDA:99,2,23,-
BRDA:99,2,25,-
BRDA:99,2,26,-
BRDA:100,0,1,22
BRDA:100,0,2,0
BRDA:100,1,4,13
BRDA:100,1,5,9
BRDA:100,5,8,9
BRDA:100,5,9,0
BRDA:100,6,13,9
BRDA:100,6,14,0
BRDA:100,7,16,9
BRDA:100,7,17,0
BRDA:100,8,22,-
BRDA:100,8,23,-
BRDA:100,8,25,-
BRDA:100,8,26,-
BRDA:101,0,1,22
BRDA:101,0,2,0
BRDA:101,1,4,10
BRDA:101,1,5,12
BRDA:101,5,8,12
BRDA:101,5,9,0
BRDA:101,6,13,12
BRDA:101,6,14,0
BRDA:101,7,16,12
BRDA:101,7,17,0
BRDA:101,8,22,-
BRDA:101,8,23,-
BRDA:101,8,25,-
BRDA:101,8,26,-
BRDA:102,0,1,22
BRDA:102,0,2,0
BRDA:110,1,1,40
BRDA:110,1,2,0
BRDA:110,2,3,20
BRDA:110,2,4,20
BRDA:112,4294967295,1,20
BRDA:112,4294967295,2,0
BRDA:112,0,4,20
BRDA:112,0,5,0
BRDA:113,4294967295,1,20
BRDA:113,4294967295,2,0
BRDA:119,1,1,42
BRDA:119,1,2,0
BRDA:119,2,3,32
BRDA:119,2,4,10
BRDA:121,4294967295,1,32
BRDA:121,4294967295,2,0
BRDA:121,0,4,32
BRDA:121,0,5,0
BRDA:121,1,7,32
BRDA:121,1,8,0
BRDA:122,4294967295,1,32
BRDA:122,4294967295,2,0
BRDA:122,0,4,32
BRDA:122,0,5,0
BRDA:123,0,1,73
BRDA:123,0,2,0
BRDA:123,1,3,41
BRDA:123,1,4,32
BRDA:125,4294967295,1,41
BRDA:125,4294967295,2,0
BRDA:125,0,4,41
BRDA:125,0,5,0
BRDA:125,1,7,0
BRDA:125,1,8,41
BRDA:126,0,1,-
BRDA:126,0,2,-
BRDA:126,1,4,-
BRDA:126,1,5,-
BRDA:126,2,7,-
BRDA:126,2,8,-
BRDA:126,3,11,-
BRDA:126,3,12,-
BRDA:128,0,1,41
BRDA:128,0,2,0
BRDA:128,1,4,41
BRDA:128,1,5,0
BRDA:130,0,1,41
BRDA:130,0,2,0
BRDA:130,1,4,41
BRDA:130,1,5,0
BRDA:137,1,1,42
BRDA:137,1,2,0
BRDA:137,2,3,32
BRDA:137,2,4,10
BRDA:139,4294967295,1,32
BRDA:139,4294967295,2,0
BRDA:139,0,4,32
BRDA:139,0,5,0
BRDA:139,1,7,32
BRDA:139,1,8,0
BRDA:140,4294967295,1,32
BRDA:140,4294967295,2,0
BRDA:140,0,4,32
BRDA:140,0,5,0
BRDA:141,0,1,73
BRDA:141,0,2,0
BRDA:141,1,3,41
BRDA:141,1,4,32
BRDA:142,0,1,41
BRDA:142,0,2,0
BRDA:142,1,4,41
BRDA:142,1,5,0
BRDA:142,2,7,0
BRDA:142,2,8,41
BRDA:144,4294967295,1,-
BRDA:144,4294967295,2,-
BRDA:145,0,1,-
BRDA:145,0,2,-
BRDA:145,1,4,-
BRDA:145,1,5,-
BRDA:145,2,7,-
BRDA:145,2,8,-
BRDA:145,3,11,-
BRDA:145,3,12,-
BRDA:146,4294967295,1,-
BRDA:146,4294967295,2,-
BRDA:146,0,4,-
BRDA:146,0,5,-
BRDA:146,1,7,-
BRDA:146,1,8,-
BRDA:146,2,11,-
BRDA:146,2,12,-
BRDA:147,4294967295,1,-
BRDA:147,4294967295,2,-
BRDA:176,0,3,9
BRDA:176,0,4,18
BRDA:177,4294967295,1,9
BRDA:177,4294967295,2,0
BRDA:177,0,4,9
BRDA:177,0,5,0
BRDA:177,1,7,9
BRDA:177,1,8,0
BRDA:178,0,1,9
BRDA:178,0,2,0
BRDA:179,1,3,9
BRDA:179,1,4,9
BRDA:180,4294967295,2,9
BRDA:180,4294967295,3,0
BRDA:180,0,5,9
BRDA:180,0,6,0
BRDA:182,0,1,9
BRDA:182,0,2,0
BRDA:184,0,1,9
BRDA:184,0,2,0
BRDA:185,1,3,9
BRDA:185,1,4,9
BRDA:186,4294967295,2,9
BRDA:186,4294967295,3,0
BRDA:186,0,5,9
BRDA:186,0,6,0
BRDA:188,0,1,9
BRDA:188,0,2,0
BRDA:190,0,1,9
BRDA:190,0,2,0
BRDA:190,1,4,9
BRDA:190,1,5,0
BRDA:191,1,3,18
BRDA:191,1,4,9
BRDA:192,4294967295,1,18
BRDA:192,4294967295,2,0
BRDA:192,0,4,18
BRDA:192,0,5,0
BRDA:192,1,7,18
BRDA:192,1,8,0
BRDA:193,0,1,18
BRDA:193,0,2,0
BRDA:193,1,4,18
BRDA:193,1,5,0
BRDA:193,2,7,18
BRDA:193,2,8,0
BRDA:194,0,1,18
BRDA:194,0,2,0
BRDA:194,1,4,18
BRDA:194,1,5,0
BRDA:194,2,7,18
BRDA:194,2,8,0
BRDA:195,0,1,18
BRDA:195,0,2,0
BRDA:195,1,4,18
BRDA:195,1,5,0
BRDA:195,2,7,18
BRDA:195,2,8,0
BRDA:196,0,1,18
BRDA:196,0,2,0
BRDA:196,1,4,18
BRDA:196,1,5,0
BRDA:196,2,7,18
BRDA:196,2,8,0
BRDA:197,0,1,18
BRDA:197,0,2,0
BRDA:197,1,4,18
BRDA:197,1,5,0
BRDA:197,2,7,18
BRDA:197,2,8,0
BRDA:198,0,1,18
BRDA:198,0,2,0
BRDA:198,1,4,18
BRDA:198,1,5,0
BRDA:198,2,7,18
BRDA:198,2,8,0
BRDA:201,0,1,9
BRDA:201,0,2,0
BRDA:201,1,4,9
BRDA:201,1,5,0
BRDA:202,1,3,33
BRDA:202,1,4,9
BRDA:203,4294967295,1,33
BRDA:203,4294967295,2,0
BRDA:203,0,4,33
BRDA:203,0,5,0
BRDA:203,1,7,33
BRDA:203,1,8,0
BRDA:203,2,10,33
BRDA:203,2,11,0
BRDA:203,3,13,33
BRDA:203,3,14,0
BRDA:217,0,1,20
BRDA:217,0,2,0
BRDA:218,0,1,20
BRDA:218,0,2,0
BRDA:218,1,3,10
BRDA:218,1,4,10
BRDA:219,0,1,10
BRDA:219,0,2,0
BRDA:219,1,4,10
BRDA:219,1,5,0
BRDA:219,2,7,10
BRDA:219,2,8,0
BRDA:222,0,1,10
BRDA:222,0,2,0
BRDA:222,2,5,10
BRDA:222,2,6,10
BRDA:224,0,1,10
BRDA:224,0,2,0
BRDA:224,1,4,10
BRDA:224,1,5,0
BRDA:224,2,8,-
BRDA:224,2,9,-
BRDA:224,2,13,-
BRDA:224,2,14,-
BRDA:224,2,16,-
BRDA:224,2,17,-
BRDA:224,2,22,-
BRDA:224,2,23,-
BRDA:224,2,25,-
BRDA:224,2,26,-
BRDA:224,2,28,-
BRDA:224,2,29,-
BRDA:225,0,1,10
BRDA:225,0,2,0
BRDA:225,1,4,10
BRDA:225,1,5,0
BRDA:225,2,8,-
BRDA:225,2,9,-
BRDA:225,2,13,-
BRDA:225,2,14,-
BRDA:225,2,16,-
BRDA:225,2,17,-
BRDA:225,2,22,-
BRDA:225,2,23,-
BRDA:225,2,25,-
BRDA:225,2,26,-
BRDA:225,2,28,-
BRDA:225,2,29,-
BRDA:231,0,3,-
BRDA:231,0,4,-
BRDA:232,4294967295,1,-
BRDA:232,4294967295,2,-
BRDA:240,1,3,-
BRDA:240,1,4,-
BRDA:241,4294967295,1,-
BRDA:241,4294967295,2,-
BRDA:242,0,1,-
BRDA:242,0,2,-
BRDA:245,0,2,-
BRDA:245,0,3,-
BRDA:245,1,5,-
BRDA:245,1,6,-
BRDA:245,2,8,-
BRDA:245,2,9,-
BRDA:247,3,1,20
BRDA:247,3,2,0
BRDA:247,4,3,20
BRDA:247,4,4,0
BRF:550
BRH:187
DA:52,10
DA:54,10
DA:55,20
DA:56,20
DA:57,10
DA:58,10
DA:60,10
DA:62,10
DA:64,10
DA:65,10
DA:66,10
DA:67,10
DA:68,10
DA:70,10
DA:72,10
DA:73,10
DA:74,10
DA:75,10
DA:76,10
DA:77,10
DA:78,10
DA:79,10
DA:80,10
DA:82,10
DA:84,10
DA:85,32
DA:86,44
DA:87,22
DA:88,22
DA:90,10
DA:92,22
DA:94,22
DA:95,22
DA:96,22
DA:97,22
DA:98,22
DA:99,22
DA:100,22
DA:101,22
DA:102,22
DA:103,22
DA:105,22
DA:106,22
DA:108,20
DA:110,40
DA:111,40
DA:112,20
DA:113,20
DA:115,20
DA:117,10
DA:119,42
DA:120,64
DA:121,32
DA:122,64
DA:123,73
DA:124,82
DA:125,41
DA:126,0
DA:128,41
DA:130,41
DA:133,10
DA:135,10
DA:137,42
DA:138,64
DA:139,32
DA:140,64
DA:141,73
DA:142,41
DA:143,0
DA:144,0
DA:145,0
DA:146,0
DA:147,0
DA:151,10
DA:153,285
DA:155,285
DA:156,227
DA:158,32
DA:160,32
DA:161,10
DA:163,22
DA:165,22
DA:166,22
DA:168,22
DA:170,22
DA:171,13
DA:173,18
DA:175,18
DA:176,27
DA:177,9
DA:178,9
DA:179,18
DA:180,9
DA:182,9
DA:184,9
DA:185,18
DA:186,9
DA:188,9
DA:190,9
DA:191,27
DA:192,18
DA:193,18
DA:194,18
DA:195,18
DA:196,18
DA:197,18
DA:198,18
DA:201,9
DA:202,42
DA:203,33
DA:208,18
DA:209,18
DA:210,18
DA:211,18
DA:212,18
DA:213,18
DA:215,20
DA:217,40
DA:218,20
DA:219,10
DA:220,10
DA:222,30
DA:224,10
DA:225,10
DA:228,0
DA:230,0
DA:231,0
DA:232,0
DA:235,0
DA:238,0
DA:240,0
DA:241,0
DA:242,0
DA:245,0
DA:247,80
LF:135
LH:119
end_of_record
